SF:/Users/steff-man/Projects/librefit/src-tauri/src/calc/math_f32.rs
FN:4,_RNvNtNtCs99Oc0knXXS8_12librefit_lib4calc8math_f329floor_f32
FN:4,_RNvNtNtCskxb0fiIX3sM_12librefit_lib4calc8math_f329floor_f32
FNDA:437,_RNvNtNtCs99Oc0knXXS8_12librefit_lib4calc8math_f329floor_f32
FNDA:0,_RNvNtNtCskxb0fiIX3sM_12librefit_lib4calc8math_f329floor_f32
FNF:1
FNH:1
DA:4,437
DA:5,437
DA:6,437
BRF:0
BRH:0
LF:3
LH:3
end_of_record
SF:/Users/steff-man/Projects/librefit/src-tauri/src/calc/wizard.rs
FN:61,_RNvMNtNtCs99Oc0knXXS8_12librefit_lib4calc6wizardNtB2_12WizardResult8specific
FN:439,_RNvNtNtCs99Oc0knXXS8_12librefit_lib4calc6wizard13calculate_bmi
FN:415,_RNvNtNtCs99Oc0knXXS8_12librefit_lib4calc6wizard13calculate_bmr
FN:424,_RNvNtNtCs99Oc0knXXS8_12librefit_lib4calc6wizard14calculate_tdee
FN:432,_RNvNtNtCs99Oc0knXXS8_12librefit_lib4calc6wizard16calculate_target
FN:428,_RNvNtNtCs99Oc0knXXS8_12librefit_lib4calc6wizard17calculate_deficit
FN:458,_RNvNtNtCs99Oc0knXXS8_12librefit_lib4calc6wizard20calculate_target_bmi
FN:443,_RNvNtNtCs99Oc0knXXS8_12librefit_lib4calc6wizard22calculate_bmi_category
FN:513,_RNvNtNtCs99Oc0knXXS8_12librefit_lib4calc6wizard23calculate_duration_days
FN:462,_RNvNtNtCs99Oc0knXXS8_12librefit_lib4calc6wizard23calculate_target_weight
FN:169,_RNvNtNtCs99Oc0knXXS8_12librefit_lib4calc6wizard23validate_activity_level
FN:520,_RNvNtNtCs99Oc0knXXS8_12librefit_lib4calc6wizard24calculate_recommendation
FN:234,_RNvNtNtCs99Oc0knXXS8_12librefit_lib4calc6wizard25calculate_for_target_date
FN:335,_RNvNtNtCs99Oc0knXXS8_12librefit_lib4calc6wizard27calculate_for_target_weight
FN:474,_RNvNtNtCs99Oc0knXXS8_12librefit_lib4calc6wizard29calculate_duration_days_total
FN:466,_RNvNtNtCs99Oc0knXXS8_12librefit_lib4calc6wizard29calculate_target_weight_lower
FN:470,_RNvNtNtCs99Oc0knXXS8_12librefit_lib4calc6wizard29calculate_target_weight_upper
FN:165,_RNvNtNtCs99Oc0knXXS8_12librefit_lib4calc6wizard8validate
FN:176,_RNvNtNtCs99Oc0knXXS8_12librefit_lib4calc6wizard9calculate
FN:261,_RNCNvNtNtCs99Oc0knXXS8_12librefit_lib4calc6wizard25calculate_for_target_date0B7_
FN:322,_RNCNvNtNtCs99Oc0knXXS8_12librefit_lib4calc6wizard25calculate_for_target_dates_0B7_
FN:261,_RNCNvNtNtCskxb0fiIX3sM_12librefit_lib4calc6wizard25calculate_for_target_date0B7_
FN:322,_RNCNvNtNtCskxb0fiIX3sM_12librefit_lib4calc6wizard25calculate_for_target_dates_0B7_
FN:61,_RNvMNtNtCskxb0fiIX3sM_12librefit_lib4calc6wizardNtB2_12WizardResult8specific
FN:439,_RNvNtNtCskxb0fiIX3sM_12librefit_lib4calc6wizard13calculate_bmi
FN:415,_RNvNtNtCskxb0fiIX3sM_12librefit_lib4calc6wizard13calculate_bmr
FN:424,_RNvNtNtCskxb0fiIX3sM_12librefit_lib4calc6wizard14calculate_tdee
FN:432,_RNvNtNtCskxb0fiIX3sM_12librefit_lib4calc6wizard16calculate_target
FN:428,_RNvNtNtCskxb0fiIX3sM_12librefit_lib4calc6wizard17calculate_deficit
FN:458,_RNvNtNtCskxb0fiIX3sM_12librefit_lib4calc6wizard20calculate_target_bmi
FN:443,_RNvNtNtCskxb0fiIX3sM_12librefit_lib4calc6wizard22calculate_bmi_category
FN:513,_RNvNtNtCskxb0fiIX3sM_12librefit_lib4calc6wizard23calculate_duration_days
FN:462,_RNvNtNtCskxb0fiIX3sM_12librefit_lib4calc6wizard23calculate_target_weight
FN:169,_RNvNtNtCskxb0fiIX3sM_12librefit_lib4calc6wizard23validate_activity_level
FN:520,_RNvNtNtCskxb0fiIX3sM_12librefit_lib4calc6wizard24calculate_recommendation
FN:234,_RNvNtNtCskxb0fiIX3sM_12librefit_lib4calc6wizard25calculate_for_target_date
FN:335,_RNvNtNtCskxb0fiIX3sM_12librefit_lib4calc6wizard27calculate_for_target_weight
FN:474,_RNvNtNtCskxb0fiIX3sM_12librefit_lib4calc6wizard29calculate_duration_days_total
FN:466,_RNvNtNtCskxb0fiIX3sM_12librefit_lib4calc6wizard29calculate_target_weight_lower
FN:470,_RNvNtNtCskxb0fiIX3sM_12librefit_lib4calc6wizard29calculate_target_weight_upper
FN:165,_RNvNtNtCskxb0fiIX3sM_12librefit_lib4calc6wizard8validate
FN:176,_RNvNtNtCskxb0fiIX3sM_12librefit_lib4calc6wizard9calculate
FNDA:21,_RNvMNtNtCs99Oc0knXXS8_12librefit_lib4calc6wizardNtB2_12WizardResult8specific
FNDA:50,_RNvNtNtCs99Oc0knXXS8_12librefit_lib4calc6wizard13calculate_bmi
FNDA:8,_RNvNtNtCs99Oc0knXXS8_12librefit_lib4calc6wizard13calculate_bmr
FNDA:8,_RNvNtNtCs99Oc0knXXS8_12librefit_lib4calc6wizard14calculate_tdee
FNDA:8,_RNvNtNtCs99Oc0knXXS8_12librefit_lib4calc6wizard16calculate_target
FNDA:8,_RNvNtNtCs99Oc0knXXS8_12librefit_lib4calc6wizard17calculate_deficit
FNDA:8,_RNvNtNtCs99Oc0knXXS8_12librefit_lib4calc6wizard20calculate_target_bmi
FNDA:50,_RNvNtNtCs99Oc0knXXS8_12librefit_lib4calc6wizard22calculate_bmi_category
FNDA:24,_RNvNtNtCs99Oc0knXXS8_12librefit_lib4calc6wizard23calculate_duration_days
FNDA:8,_RNvNtNtCs99Oc0knXXS8_12librefit_lib4calc6wizard23calculate_target_weight
FNDA:9,_RNvNtNtCs99Oc0knXXS8_12librefit_lib4calc6wizard23validate_activity_level
FNDA:8,_RNvNtNtCs99Oc0knXXS8_12librefit_lib4calc6wizard24calculate_recommendation
FNDA:3,_RNvNtNtCs99Oc0knXXS8_12librefit_lib4calc6wizard25calculate_for_target_date
FNDA:9,_RNvNtNtCs99Oc0knXXS8_12librefit_lib4calc6wizard27calculate_for_target_weight
FNDA:8,_RNvNtNtCs99Oc0knXXS8_12librefit_lib4calc6wizard29calculate_duration_days_total
FNDA:8,_RNvNtNtCs99Oc0knXXS8_12librefit_lib4calc6wizard29calculate_target_weight_lower
FNDA:8,_RNvNtNtCs99Oc0knXXS8_12librefit_lib4calc6wizard29calculate_target_weight_upper
FNDA:8,_RNvNtNtCs99Oc0knXXS8_12librefit_lib4calc6wizard8validate
FNDA:8,_RNvNtNtCs99Oc0knXXS8_12librefit_lib4calc6wizard9calculate
FNDA:21,_RNCNvNtNtCs99Oc0knXXS8_12librefit_lib4calc6wizard25calculate_for_target_date0B7_
FNDA:21,_RNCNvNtNtCs99Oc0knXXS8_12librefit_lib4calc6wizard25calculate_for_target_dates_0B7_
FNDA:0,_RNCNvNtNtCskxb0fiIX3sM_12librefit_lib4calc6wizard25calculate_for_target_date0B7_
FNDA:0,_RNCNvNtNtCskxb0fiIX3sM_12librefit_lib4calc6wizard25calculate_for_target_dates_0B7_
FNDA:0,_RNvMNtNtCskxb0fiIX3sM_12librefit_lib4calc6wizardNtB2_12WizardResult8specific
FNDA:0,_RNvNtNtCskxb0fiIX3sM_12librefit_lib4calc6wizard13calculate_bmi
FNDA:0,_RNvNtNtCskxb0fiIX3sM_12librefit_lib4calc6wizard13calculate_bmr
FNDA:0,_RNvNtNtCskxb0fiIX3sM_12librefit_lib4calc6wizard14calculate_tdee
FNDA:0,_RNvNtNtCskxb0fiIX3sM_12librefit_lib4calc6wizard16calculate_target
FNDA:0,_RNvNtNtCskxb0fiIX3sM_12librefit_lib4calc6wizard17calculate_deficit
FNDA:0,_RNvNtNtCskxb0fiIX3sM_12librefit_lib4calc6wizard20calculate_target_bmi
FNDA:0,_RNvNtNtCskxb0fiIX3sM_12librefit_lib4calc6wizard22calculate_bmi_category
FNDA:0,_RNvNtNtCskxb0fiIX3sM_12librefit_lib4calc6wizard23calculate_duration_days
FNDA:0,_RNvNtNtCskxb0fiIX3sM_12librefit_lib4calc6wizard23calculate_target_weight
FNDA:0,_RNvNtNtCskxb0fiIX3sM_12librefit_lib4calc6wizard23validate_activity_level
FNDA:0,_RNvNtNtCskxb0fiIX3sM_12librefit_lib4calc6wizard24calculate_recommendation
FNDA:0,_RNvNtNtCskxb0fiIX3sM_12librefit_lib4calc6wizard25calculate_for_target_date
FNDA:0,_RNvNtNtCskxb0fiIX3sM_12librefit_lib4calc6wizard27calculate_for_target_weight
FNDA:0,_RNvNtNtCskxb0fiIX3sM_12librefit_lib4calc6wizard29calculate_duration_days_total
FNDA:0,_RNvNtNtCskxb0fiIX3sM_12librefit_lib4calc6wizard29calculate_target_weight_lower
FNDA:0,_RNvNtNtCskxb0fiIX3sM_12librefit_lib4calc6wizard29calculate_target_weight_upper
FNDA:0,_RNvNtNtCskxb0fiIX3sM_12librefit_lib4calc6wizard8validate
FNDA:0,_RNvNtNtCskxb0fiIX3sM_12librefit_lib4calc6wizard9calculate
FNF:21
FNH:21
DA:61,21
DA:62,21
DA:63,21
DA:64,21
DA:65,21
DA:66,21
DA:67,21
DA:68,21
DA:69,21
DA:70,21
DA:71,21
DA:72,21
DA:73,21
DA:74,21
DA:75,21
DA:76,21
DA:77,21
DA:78,21
DA:79,21
DA:80,21
DA:165,8
DA:166,8
DA:167,8
DA:169,9
DA:170,9
DA:171,9
DA:172,1
DA:174,9
DA:176,8
DA:177,8
DA:178,0
DA:180,8
DA:182,8
DA:183,8
DA:184,8
DA:185,8
DA:186,8
DA:189,8
DA:190,8
DA:191,8
DA:193,8
DA:194,8
DA:196,8
DA:197,8
DA:198,8
DA:200,8
DA:201,8
DA:202,8
DA:203,8
DA:204,8
DA:206,8
DA:208,8
DA:209,8
DA:210,8
DA:211,8
DA:212,8
DA:213,8
DA:214,8
DA:215,8
DA:216,8
DA:217,8
DA:218,8
DA:219,8
DA:220,8
DA:221,8
DA:222,8
DA:223,8
DA:224,8
DA:225,8
DA:227,8
DA:229,8
DA:232,8
DA:234,3
DA:235,3
DA:236,3
DA:237,3
DA:238,0
DA:240,3
DA:241,3
DA:242,3
DA:243,3
DA:245,3
DA:247,3
DA:248,3
DA:250,3
DA:251,3
DA:252,2
DA:254,1
DA:257,3
DA:259,3
DA:260,3
DA:261,21
DA:262,21
DA:263,21
DA:265,21
DA:266,21
DA:268,21
DA:269,21
DA:271,21
DA:273,14
DA:274,14
DA:276,0
DA:280,7
DA:281,0
DA:283,7
DA:285,0
DA:289,21
DA:290,3
DA:293,3
DA:294,0
DA:295,0
DA:297,0
DA:298,0
DA:299,0
DA:300,0
DA:305,0
DA:307,0
DA:308,0
DA:310,0
DA:311,0
DA:312,0
DA:313,0
DA:316,0
DA:317,3
DA:319,3
DA:320,3
DA:322,21
DA:323,21
DA:324,21
DA:325,21
DA:327,3
DA:328,3
DA:329,3
DA:330,3
DA:333,3
DA:335,9
DA:336,9
DA:337,9
DA:338,9
DA:339,0
DA:341,9
DA:342,9
DA:344,9
DA:345,9
DA:347,9
DA:348,4
DA:350,5
DA:353,9
DA:354,9
DA:358,9
DA:360,9
DA:361,2
DA:362,2
DA:363,1
DA:364,1
DA:365,1
DA:366,1
DA:367,0
DA:368,7
DA:369,2
DA:370,2
DA:371,1
DA:372,1
DA:373,1
DA:374,1
DA:375,0
DA:376,5
DA:377,2
DA:378,2
DA:379,1
DA:380,1
DA:381,1
DA:382,1
DA:383,0
DA:384,3
DA:386,9
DA:387,9
DA:389,9
DA:390,3
DA:392,24
DA:393,21
DA:394,21
DA:395,21
DA:396,21
DA:397,21
DA:398,21
DA:399,21
DA:400,21
DA:401,21
DA:402,6
DA:404,9
DA:405,9
DA:406,9
DA:407,9
DA:408,9
DA:409,9
DA:410,9
DA:413,9
DA:415,8
DA:416,8
DA:417,4
DA:419,4
DA:422,8
DA:424,8
DA:425,8
DA:426,8
DA:428,8
DA:429,8
DA:430,8
DA:432,8
DA:433,8
DA:434,1
DA:435,7
DA:437,8
DA:439,50
DA:440,50
DA:441,50
DA:443,50
DA:444,50
DA:446,50
DA:447,50
DA:448,45
DA:449,24
DA:450,11
DA:451,5
DA:453,50
DA:458,8
DA:459,8
DA:460,8
DA:462,8
DA:463,8
DA:464,8
DA:466,8
DA:467,8
DA:468,8
DA:470,8
DA:471,8
DA:472,8
DA:474,8
DA:475,8
DA:476,1
DA:477,1
DA:478,1
DA:479,1
DA:480,1
DA:481,1
DA:482,1
DA:483,1
DA:484,1
DA:485,1
DA:486,1
DA:487,1
DA:488,1
DA:489,1
DA:490,1
DA:491,1
DA:492,1
DA:493,7
DA:494,7
DA:495,7
DA:496,7
DA:497,7
DA:498,7
DA:499,7
DA:500,7
DA:501,7
DA:502,7
DA:503,7
DA:504,7
DA:505,7
DA:506,7
DA:507,7
DA:508,7
DA:509,7
DA:511,8
DA:513,24
DA:514,24
DA:515,24
DA:520,8
DA:521,8
DA:523,8
DA:524,2
DA:525,6
DA:528,0
DA:529,6
DA:531,1
DA:534,5
DA:536,8
BRF:0
BRH:0
LF:290
LH:266
end_of_record
SF:/Users/steff-man/Projects/librefit/src-tauri/src/db/connection.rs
FN:19,_RNvNtNtCs99Oc0knXXS8_12librefit_lib2db10connection11create_pool
FN:37,_RNvXNtNtCs99Oc0knXXS8_12librefit_lib2db10connectionNtB2_17ConnectionOptionsINtCsdS4sZgL4vFN_4r2d219CustomizeConnectionNtNtNtCs7M5B8tusgtg_6diesel6sqlite10connection16SqliteConnectionNtNtB1Y_4r2d25ErrorE10on_acquire
FN:19,_RNvNtNtCskxb0fiIX3sM_12librefit_lib2db10connection11create_pool
FN:37,_RNvXNtNtCskxb0fiIX3sM_12librefit_lib2db10connectionNtB2_17ConnectionOptionsINtCsdS4sZgL4vFN_4r2d219CustomizeConnectionNtNtNtCs7M5B8tusgtg_6diesel6sqlite10connection16SqliteConnectionNtNtB1Y_4r2d25ErrorE10on_acquire
FNDA:0,_RNvNtNtCs99Oc0knXXS8_12librefit_lib2db10connection11create_pool
FNDA:0,_RNvXNtNtCs99Oc0knXXS8_12librefit_lib2db10connectionNtB2_17ConnectionOptionsINtCsdS4sZgL4vFN_4r2d219CustomizeConnectionNtNtNtCs7M5B8tusgtg_6diesel6sqlite10connection16SqliteConnectionNtNtB1Y_4r2d25ErrorE10on_acquire
FNDA:0,_RNvNtNtCskxb0fiIX3sM_12librefit_lib2db10connection11create_pool
FNDA:0,_RNvXNtNtCskxb0fiIX3sM_12librefit_lib2db10connectionNtB2_17ConnectionOptionsINtCsdS4sZgL4vFN_4r2d219CustomizeConnectionNtNtNtCs7M5B8tusgtg_6diesel6sqlite10connection16SqliteConnectionNtNtB1Y_4r2d25ErrorE10on_acquire
FNF:2
FNH:0
DA:19,0
DA:20,0
DA:22,0
DA:24,0
DA:25,0
DA:26,0
DA:27,0
DA:28,0
DA:29,0
DA:30,0
DA:37,0
DA:43,0
DA:44,0
DA:45,0
DA:48,0
DA:49,0
DA:50,0
DA:54,0
DA:55,0
DA:56,0
DA:60,0
DA:61,0
DA:62,0
DA:64,0
DA:65,0
BRF:0
BRH:0
LF:25
LH:0
end_of_record
SF:/Users/steff-man/Projects/librefit/src-tauri/src/db/mod.rs
FN:21,_RNCINvXNtCs99Oc0knXXS8_12librefit_lib2dbINtNtCs8AAiN7pm6Jl_5tauri5state5StateINtCsdS4sZgL4vFN_4r2d24PoolINtNtCs7M5B8tusgtg_6diesel4r2d217ConnectionManagerNtNtNtB1J_6sqlite10connection16SqliteConnectionEEENtB5_10DbExecutor7executeINtNtCs1FLWZe5rD62_4core6option6OptionNtNtNtB7_7service4user9LibreUserENCNvB4j_8get_user0E0B7_
FN:21,_RNCINvXNtCs99Oc0knXXS8_12librefit_lib2dbINtNtCs8AAiN7pm6Jl_5tauri5state5StateINtCsdS4sZgL4vFN_4r2d24PoolINtNtCs7M5B8tusgtg_6diesel4r2d217ConnectionManagerNtNtNtB1J_6sqlite10connection16SqliteConnectionEEENtB5_10DbExecutor7executeINtNtCsk11oWLwBebd_5alloc3vec3VecNtNtB3K_6string6StringENCNvNtNtB7_7service6intake34get_calorie_tracker_dates_in_range0E0B7_
FN:21,_RNCINvXNtCs99Oc0knXXS8_12librefit_lib2dbINtNtCs8AAiN7pm6Jl_5tauri5state5StateINtCsdS4sZgL4vFN_4r2d24PoolINtNtCs7M5B8tusgtg_6diesel4r2d217ConnectionManagerNtNtNtB1J_6sqlite10connection16SqliteConnectionEEENtB5_10DbExecutor7executeINtNtCsk11oWLwBebd_5alloc3vec3VecNtNtNtB7_7service6intake12FoodCategoryENvMs0_B4e_B4c_3allE0B7_
FN:21,_RNCINvXNtCs99Oc0knXXS8_12librefit_lib2dbINtNtCs8AAiN7pm6Jl_5tauri5state5StateINtCsdS4sZgL4vFN_4r2d24PoolINtNtCs7M5B8tusgtg_6diesel4r2d217ConnectionManagerNtNtNtB1J_6sqlite10connection16SqliteConnectionEEENtB5_10DbExecutor7executeINtNtCsk11oWLwBebd_5alloc3vec3VecNtNtNtB7_7service6intake6IntakeENCNvB4e_34get_calorie_tracker_for_date_range0E0B7_
FN:21,_RNCINvXNtCs99Oc0knXXS8_12librefit_lib2dbINtNtCs8AAiN7pm6Jl_5tauri5state5StateINtCsdS4sZgL4vFN_4r2d24PoolINtNtCs7M5B8tusgtg_6diesel4r2d217ConnectionManagerNtNtNtB1J_6sqlite10connection16SqliteConnectionEEENtB5_10DbExecutor7executeINtNtCsk11oWLwBebd_5alloc3vec3VecNtNtNtB7_7service6weight12WeightTargetENvMs_B4e_B4c_3allE0B7_
FN:21,_RNCINvXNtCs99Oc0knXXS8_12librefit_lib2dbINtNtCs8AAiN7pm6Jl_5tauri5state5StateINtCsdS4sZgL4vFN_4r2d24PoolINtNtCs7M5B8tusgtg_6diesel4r2d217ConnectionManagerNtNtNtB1J_6sqlite10connection16SqliteConnectionEEENtB5_10DbExecutor7executeINtNtCsk11oWLwBebd_5alloc3vec3VecNtNtNtB7_7service6weight13WeightTrackerENCNvB4e_33get_weight_tracker_for_date_range0E0B7_
FN:21,_RNCINvXNtCs99Oc0knXXS8_12librefit_lib2dbINtNtCs8AAiN7pm6Jl_5tauri5state5StateINtCsdS4sZgL4vFN_4r2d24PoolINtNtCs7M5B8tusgtg_6diesel4r2d217ConnectionManagerNtNtNtB1J_6sqlite10connection16SqliteConnectionEEENtB5_10DbExecutor7executeNtNtNtB7_7service4body8BodyDataNCNvB3H_16update_body_data0E0B7_
FN:21,_RNCINvXNtCs99Oc0knXXS8_12librefit_lib2dbINtNtCs8AAiN7pm6Jl_5tauri5state5StateINtCsdS4sZgL4vFN_4r2d24PoolINtNtCs7M5B8tusgtg_6diesel4r2d217ConnectionManagerNtNtNtB1J_6sqlite10connection16SqliteConnectionEEENtB5_10DbExecutor7executeNtNtNtB7_7service4body8BodyDataNvMB3H_B3F_3getE0B7_
FN:21,_RNCINvXNtCs99Oc0knXXS8_12librefit_lib2dbINtNtCs8AAiN7pm6Jl_5tauri5state5StateINtCsdS4sZgL4vFN_4r2d24PoolINtNtCs7M5B8tusgtg_6diesel4r2d217ConnectionManagerNtNtNtB1J_6sqlite10connection16SqliteConnectionEEENtB5_10DbExecutor7executeNtNtNtB7_7service4user9LibreUserNCNvB3H_11update_user0E0B7_
FN:21,_RNCINvXNtCs99Oc0knXXS8_12librefit_lib2dbINtNtCs8AAiN7pm6Jl_5tauri5state5StateINtCsdS4sZgL4vFN_4r2d24PoolINtNtCs7M5B8tusgtg_6diesel4r2d217ConnectionManagerNtNtNtB1J_6sqlite10connection16SqliteConnectionEEENtB5_10DbExecutor7executeNtNtNtB7_7service6intake12IntakeTargetNCNvB3H_21create_calorie_target0E0B7_
FN:21,_RNCINvXNtCs99Oc0knXXS8_12librefit_lib2dbINtNtCs8AAiN7pm6Jl_5tauri5state5StateINtCsdS4sZgL4vFN_4r2d24PoolINtNtCs7M5B8tusgtg_6diesel4r2d217ConnectionManagerNtNtNtB1J_6sqlite10connection16SqliteConnectionEEENtB5_10DbExecutor7executeNtNtNtB7_7service6intake12IntakeTargetNvMs_B3H_B3F_9find_lastE0B7_
FN:21,_RNCINvXNtCs99Oc0knXXS8_12librefit_lib2dbINtNtCs8AAiN7pm6Jl_5tauri5state5StateINtCsdS4sZgL4vFN_4r2d24PoolINtNtCs7M5B8tusgtg_6diesel4r2d217ConnectionManagerNtNtNtB1J_6sqlite10connection16SqliteConnectionEEENtB5_10DbExecutor7executeNtNtNtB7_7service6intake6IntakeNCNvB3H_28create_calorie_tracker_entry0E0B7_
FN:21,_RNCINvXNtCs99Oc0knXXS8_12librefit_lib2dbINtNtCs8AAiN7pm6Jl_5tauri5state5StateINtCsdS4sZgL4vFN_4r2d24PoolINtNtCs7M5B8tusgtg_6diesel4r2d217ConnectionManagerNtNtNtB1J_6sqlite10connection16SqliteConnectionEEENtB5_10DbExecutor7executeNtNtNtB7_7service6intake6IntakeNCNvB3H_28update_calorie_tracker_entry0E0B7_
FN:21,_RNCINvXNtCs99Oc0knXXS8_12librefit_lib2dbINtNtCs8AAiN7pm6Jl_5tauri5state5StateINtCsdS4sZgL4vFN_4r2d24PoolINtNtCs7M5B8tusgtg_6diesel4r2d217ConnectionManagerNtNtNtB1J_6sqlite10connection16SqliteConnectionEEENtB5_10DbExecutor7executeNtNtNtB7_7service6weight12WeightTargetNCNvB3H_20create_weight_target0E0B7_
FN:21,_RNCINvXNtCs99Oc0knXXS8_12librefit_lib2dbINtNtCs8AAiN7pm6Jl_5tauri5state5StateINtCsdS4sZgL4vFN_4r2d24PoolINtNtCs7M5B8tusgtg_6diesel4r2d217ConnectionManagerNtNtNtB1J_6sqlite10connection16SqliteConnectionEEENtB5_10DbExecutor7executeNtNtNtB7_7service6weight12WeightTargetNCNvB3H_20update_weight_target0E0B7_
FN:21,_RNCINvXNtCs99Oc0knXXS8_12librefit_lib2dbINtNtCs8AAiN7pm6Jl_5tauri5state5StateINtCsdS4sZgL4vFN_4r2d24PoolINtNtCs7M5B8tusgtg_6diesel4r2d217ConnectionManagerNtNtNtB1J_6sqlite10connection16SqliteConnectionEEENtB5_10DbExecutor7executeNtNtNtB7_7service6weight12WeightTargetNvMs_B3H_B3F_10get_latestE0B7_
FN:21,_RNCINvXNtCs99Oc0knXXS8_12librefit_lib2dbINtNtCs8AAiN7pm6Jl_5tauri5state5StateINtCsdS4sZgL4vFN_4r2d24PoolINtNtCs7M5B8tusgtg_6diesel4r2d217ConnectionManagerNtNtNtB1J_6sqlite10connection16SqliteConnectionEEENtB5_10DbExecutor7executeNtNtNtB7_7service6weight13WeightTrackerNCNvB3H_27create_weight_tracker_entry0E0B7_
FN:21,_RNCINvXNtCs99Oc0knXXS8_12librefit_lib2dbINtNtCs8AAiN7pm6Jl_5tauri5state5StateINtCsdS4sZgL4vFN_4r2d24PoolINtNtCs7M5B8tusgtg_6diesel4r2d217ConnectionManagerNtNtNtB1J_6sqlite10connection16SqliteConnectionEEENtB5_10DbExecutor7executeNtNtNtB7_7service6weight13WeightTrackerNCNvB3H_27update_weight_tracker_entry0E0B7_
FN:21,_RNCINvXNtCs99Oc0knXXS8_12librefit_lib2dbINtNtCs8AAiN7pm6Jl_5tauri5state5StateINtCsdS4sZgL4vFN_4r2d24PoolINtNtCs7M5B8tusgtg_6diesel4r2d217ConnectionManagerNtNtNtB1J_6sqlite10connection16SqliteConnectionEEENtB5_10DbExecutor7executejNCNvNtNtB7_7service6intake28delete_calorie_tracker_entry0E0B7_
FN:21,_RNCINvXNtCs99Oc0knXXS8_12librefit_lib2dbINtNtCs8AAiN7pm6Jl_5tauri5state5StateINtCsdS4sZgL4vFN_4r2d24PoolINtNtCs7M5B8tusgtg_6diesel4r2d217ConnectionManagerNtNtNtB1J_6sqlite10connection16SqliteConnectionEEENtB5_10DbExecutor7executejNCNvNtNtB7_7service6weight20delete_weight_target0E0B7_
FN:21,_RNCINvXNtCs99Oc0knXXS8_12librefit_lib2dbINtNtCs8AAiN7pm6Jl_5tauri5state5StateINtCsdS4sZgL4vFN_4r2d24PoolINtNtCs7M5B8tusgtg_6diesel4r2d217ConnectionManagerNtNtNtB1J_6sqlite10connection16SqliteConnectionEEENtB5_10DbExecutor7executejNCNvNtNtB7_7service6weight27delete_weight_tracker_entry0E0B7_
FN:15,_RINvXNtCs99Oc0knXXS8_12librefit_lib2dbINtNtCs8AAiN7pm6Jl_5tauri5state5StateINtCsdS4sZgL4vFN_4r2d24PoolINtNtCs7M5B8tusgtg_6diesel4r2d217ConnectionManagerNtNtNtB1H_6sqlite10connection16SqliteConnectionEEENtB3_10DbExecutor7executeINtNtCs1FLWZe5rD62_4core6option6OptionNtNtNtB5_7service4user9LibreUserENCNvB4h_8get_user0EB5_
FN:15,_RINvXNtCs99Oc0knXXS8_12librefit_lib2dbINtNtCs8AAiN7pm6Jl_5tauri5state5StateINtCsdS4sZgL4vFN_4r2d24PoolINtNtCs7M5B8tusgtg_6diesel4r2d217ConnectionManagerNtNtNtB1H_6sqlite10connection16SqliteConnectionEEENtB3_10DbExecutor7executeINtNtCsk11oWLwBebd_5alloc3vec3VecNtNtB3I_6string6StringENCNvNtNtB5_7service6intake34get_calorie_tracker_dates_in_range0EB5_
FN:15,_RINvXNtCs99Oc0knXXS8_12librefit_lib2dbINtNtCs8AAiN7pm6Jl_5tauri5state5StateINtCsdS4sZgL4vFN_4r2d24PoolINtNtCs7M5B8tusgtg_6diesel4r2d217ConnectionManagerNtNtNtB1H_6sqlite10connection16SqliteConnectionEEENtB3_10DbExecutor7executeINtNtCsk11oWLwBebd_5alloc3vec3VecNtNtNtB5_7service6intake12FoodCategoryENvMs0_B4c_B4a_3allEB5_
FN:15,_RINvXNtCs99Oc0knXXS8_12librefit_lib2dbINtNtCs8AAiN7pm6Jl_5tauri5state5StateINtCsdS4sZgL4vFN_4r2d24PoolINtNtCs7M5B8tusgtg_6diesel4r2d217ConnectionManagerNtNtNtB1H_6sqlite10connection16SqliteConnectionEEENtB3_10DbExecutor7executeINtNtCsk11oWLwBebd_5alloc3vec3VecNtNtNtB5_7service6intake6IntakeENCNvB4c_34get_calorie_tracker_for_date_range0EB5_
FN:15,_RINvXNtCs99Oc0knXXS8_12librefit_lib2dbINtNtCs8AAiN7pm6Jl_5tauri5state5StateINtCsdS4sZgL4vFN_4r2d24PoolINtNtCs7M5B8tusgtg_6diesel4r2d217ConnectionManagerNtNtNtB1H_6sqlite10connection16SqliteConnectionEEENtB3_10DbExecutor7executeINtNtCsk11oWLwBebd_5alloc3vec3VecNtNtNtB5_7service6weight12WeightTargetENvMs_B4c_B4a_3allEB5_
FN:15,_RINvXNtCs99Oc0knXXS8_12librefit_lib2dbINtNtCs8AAiN7pm6Jl_5tauri5state5StateINtCsdS4sZgL4vFN_4r2d24PoolINtNtCs7M5B8tusgtg_6diesel4r2d217ConnectionManagerNtNtNtB1H_6sqlite10connection16SqliteConnectionEEENtB3_10DbExecutor7executeINtNtCsk11oWLwBebd_5alloc3vec3VecNtNtNtB5_7service6weight13WeightTrackerENCNvB4c_33get_weight_tracker_for_date_range0EB5_
FN:15,_RINvXNtCs99Oc0knXXS8_12librefit_lib2dbINtNtCs8AAiN7pm6Jl_5tauri5state5StateINtCsdS4sZgL4vFN_4r2d24PoolINtNtCs7M5B8tusgtg_6diesel4r2d217ConnectionManagerNtNtNtB1H_6sqlite10connection16SqliteConnectionEEENtB3_10DbExecutor7executeNtNtNtB5_7service4body8BodyDataNCNvB3F_16update_body_data0EB5_
FN:15,_RINvXNtCs99Oc0knXXS8_12librefit_lib2dbINtNtCs8AAiN7pm6Jl_5tauri5state5StateINtCsdS4sZgL4vFN_4r2d24PoolINtNtCs7M5B8tusgtg_6diesel4r2d217ConnectionManagerNtNtNtB1H_6sqlite10connection16SqliteConnectionEEENtB3_10DbExecutor7executeNtNtNtB5_7service4body8BodyDataNvMB3F_B3D_3getEB5_
FN:15,_RINvXNtCs99Oc0knXXS8_12librefit_lib2dbINtNtCs8AAiN7pm6Jl_5tauri5state5StateINtCsdS4sZgL4vFN_4r2d24PoolINtNtCs7M5B8tusgtg_6diesel4r2d217ConnectionManagerNtNtNtB1H_6sqlite10connection16SqliteConnectionEEENtB3_10DbExecutor7executeNtNtNtB5_7service4user9LibreUserNCNvB3F_11update_user0EB5_
FN:15,_RINvXNtCs99Oc0knXXS8_12librefit_lib2dbINtNtCs8AAiN7pm6Jl_5tauri5state5StateINtCsdS4sZgL4vFN_4r2d24PoolINtNtCs7M5B8tusgtg_6diesel4r2d217ConnectionManagerNtNtNtB1H_6sqlite10connection16SqliteConnectionEEENtB3_10DbExecutor7executeNtNtNtB5_7service6intake12IntakeTargetNCNvB3F_21create_calorie_target0EB5_
FN:15,_RINvXNtCs99Oc0knXXS8_12librefit_lib2dbINtNtCs8AAiN7pm6Jl_5tauri5state5StateINtCsdS4sZgL4vFN_4r2d24PoolINtNtCs7M5B8tusgtg_6diesel4r2d217ConnectionManagerNtNtNtB1H_6sqlite10connection16SqliteConnectionEEENtB3_10DbExecutor7executeNtNtNtB5_7service6intake12IntakeTargetNvMs_B3F_B3D_9find_lastEB5_
FN:15,_RINvXNtCs99Oc0knXXS8_12librefit_lib2dbINtNtCs8AAiN7pm6Jl_5tauri5state5StateINtCsdS4sZgL4vFN_4r2d24PoolINtNtCs7M5B8tusgtg_6diesel4r2d217ConnectionManagerNtNtNtB1H_6sqlite10connection16SqliteConnectionEEENtB3_10DbExecutor7executeNtNtNtB5_7service6intake6IntakeNCNvB3F_28create_calorie_tracker_entry0EB5_
FN:15,_RINvXNtCs99Oc0knXXS8_12librefit_lib2dbINtNtCs8AAiN7pm6Jl_5tauri5state5StateINtCsdS4sZgL4vFN_4r2d24PoolINtNtCs7M5B8tusgtg_6diesel4r2d217ConnectionManagerNtNtNtB1H_6sqlite10connection16SqliteConnectionEEENtB3_10DbExecutor7executeNtNtNtB5_7service6intake6IntakeNCNvB3F_28update_calorie_tracker_entry0EB5_
FN:15,_RINvXNtCs99Oc0knXXS8_12librefit_lib2dbINtNtCs8AAiN7pm6Jl_5tauri5state5StateINtCsdS4sZgL4vFN_4r2d24PoolINtNtCs7M5B8tusgtg_6diesel4r2d217ConnectionManagerNtNtNtB1H_6sqlite10connection16SqliteConnectionEEENtB3_10DbExecutor7executeNtNtNtB5_7service6weight12WeightTargetNCNvB3F_20create_weight_target0EB5_
FN:15,_RINvXNtCs99Oc0knXXS8_12librefit_lib2dbINtNtCs8AAiN7pm6Jl_5tauri5state5StateINtCsdS4sZgL4vFN_4r2d24PoolINtNtCs7M5B8tusgtg_6diesel4r2d217ConnectionManagerNtNtNtB1H_6sqlite10connection16SqliteConnectionEEENtB3_10DbExecutor7executeNtNtNtB5_7service6weight12WeightTargetNCNvB3F_20update_weight_target0EB5_
FN:15,_RINvXNtCs99Oc0knXXS8_12librefit_lib2dbINtNtCs8AAiN7pm6Jl_5tauri5state5StateINtCsdS4sZgL4vFN_4r2d24PoolINtNtCs7M5B8tusgtg_6diesel4r2d217ConnectionManagerNtNtNtB1H_6sqlite10connection16SqliteConnectionEEENtB3_10DbExecutor7executeNtNtNtB5_7service6weight12WeightTargetNvMs_B3F_B3D_10get_latestEB5_
FN:15,_RINvXNtCs99Oc0knXXS8_12librefit_lib2dbINtNtCs8AAiN7pm6Jl_5tauri5state5StateINtCsdS4sZgL4vFN_4r2d24PoolINtNtCs7M5B8tusgtg_6diesel4r2d217ConnectionManagerNtNtNtB1H_6sqlite10connection16SqliteConnectionEEENtB3_10DbExecutor7executeNtNtNtB5_7service6weight13WeightTrackerNCNvB3F_27create_weight_tracker_entry0EB5_
FN:15,_RINvXNtCs99Oc0knXXS8_12librefit_lib2dbINtNtCs8AAiN7pm6Jl_5tauri5state5StateINtCsdS4sZgL4vFN_4r2d24PoolINtNtCs7M5B8tusgtg_6diesel4r2d217ConnectionManagerNtNtNtB1H_6sqlite10connection16SqliteConnectionEEENtB3_10DbExecutor7executeNtNtNtB5_7service6weight13WeightTrackerNCNvB3F_27update_weight_tracker_entry0EB5_
FN:15,_RINvXNtCs99Oc0knXXS8_12librefit_lib2dbINtNtCs8AAiN7pm6Jl_5tauri5state5StateINtCsdS4sZgL4vFN_4r2d24PoolINtNtCs7M5B8tusgtg_6diesel4r2d217ConnectionManagerNtNtNtB1H_6sqlite10connection16SqliteConnectionEEENtB3_10DbExecutor7executejNCNvNtNtB5_7service6intake28delete_calorie_tracker_entry0EB5_
FN:15,_RINvXNtCs99Oc0knXXS8_12librefit_lib2dbINtNtCs8AAiN7pm6Jl_5tauri5state5StateINtCsdS4sZgL4vFN_4r2d24PoolINtNtCs7M5B8tusgtg_6diesel4r2d217ConnectionManagerNtNtNtB1H_6sqlite10connection16SqliteConnectionEEENtB3_10DbExecutor7executejNCNvNtNtB5_7service6weight20delete_weight_target0EB5_
FN:15,_RINvXNtCs99Oc0knXXS8_12librefit_lib2dbINtNtCs8AAiN7pm6Jl_5tauri5state5StateINtCsdS4sZgL4vFN_4r2d24PoolINtNtCs7M5B8tusgtg_6diesel4r2d217ConnectionManagerNtNtNtB1H_6sqlite10connection16SqliteConnectionEEENtB3_10DbExecutor7executejNCNvNtNtB5_7service6weight27delete_weight_tracker_entry0EB5_
FN:15,_RINvXNtCskxb0fiIX3sM_12librefit_lib2dbINtNtCs8AAiN7pm6Jl_5tauri5state5StateINtCsdS4sZgL4vFN_4r2d24PoolINtNtCs7M5B8tusgtg_6diesel4r2d217ConnectionManagerNtNtNtB1H_6sqlite10connection16SqliteConnectionEEENtB3_10DbExecutor7executeppEB5_
FN:21,_RNCINvXNtCskxb0fiIX3sM_12librefit_lib2dbINtNtCs8AAiN7pm6Jl_5tauri5state5StateINtCsdS4sZgL4vFN_4r2d24PoolINtNtCs7M5B8tusgtg_6diesel4r2d217ConnectionManagerNtNtNtB1J_6sqlite10connection16SqliteConnectionEEENtB5_10DbExecutor7executeppE0B7_
FNDA:0,_RNCINvXNtCs99Oc0knXXS8_12librefit_lib2dbINtNtCs8AAiN7pm6Jl_5tauri5state5StateINtCsdS4sZgL4vFN_4r2d24PoolINtNtCs7M5B8tusgtg_6diesel4r2d217ConnectionManagerNtNtNtB1J_6sqlite10connection16SqliteConnectionEEENtB5_10DbExecutor7executeINtNtCs1FLWZe5rD62_4core6option6OptionNtNtNtB7_7service4user9LibreUserENCNvB4j_8get_user0E0B7_
FNDA:0,_RNCINvXNtCs99Oc0knXXS8_12librefit_lib2dbINtNtCs8AAiN7pm6Jl_5tauri5state5StateINtCsdS4sZgL4vFN_4r2d24PoolINtNtCs7M5B8tusgtg_6diesel4r2d217ConnectionManagerNtNtNtB1J_6sqlite10connection16SqliteConnectionEEENtB5_10DbExecutor7executeINtNtCsk11oWLwBebd_5alloc3vec3VecNtNtB3K_6string6StringENCNvNtNtB7_7service6intake34get_calorie_tracker_dates_in_range0E0B7_
FNDA:0,_RNCINvXNtCs99Oc0knXXS8_12librefit_lib2dbINtNtCs8AAiN7pm6Jl_5tauri5state5StateINtCsdS4sZgL4vFN_4r2d24PoolINtNtCs7M5B8tusgtg_6diesel4r2d217ConnectionManagerNtNtNtB1J_6sqlite10connection16SqliteConnectionEEENtB5_10DbExecutor7executeINtNtCsk11oWLwBebd_5alloc3vec3VecNtNtNtB7_7service6intake12FoodCategoryENvMs0_B4e_B4c_3allE0B7_
FNDA:0,_RNCINvXNtCs99Oc0knXXS8_12librefit_lib2dbINtNtCs8AAiN7pm6Jl_5tauri5state5StateINtCsdS4sZgL4vFN_4r2d24PoolINtNtCs7M5B8tusgtg_6diesel4r2d217ConnectionManagerNtNtNtB1J_6sqlite10connection16SqliteConnectionEEENtB5_10DbExecutor7executeINtNtCsk11oWLwBebd_5alloc3vec3VecNtNtNtB7_7service6intake6IntakeENCNvB4e_34get_calorie_tracker_for_date_range0E0B7_
FNDA:0,_RNCINvXNtCs99Oc0knXXS8_12librefit_lib2dbINtNtCs8AAiN7pm6Jl_5tauri5state5StateINtCsdS4sZgL4vFN_4r2d24PoolINtNtCs7M5B8tusgtg_6diesel4r2d217ConnectionManagerNtNtNtB1J_6sqlite10connection16SqliteConnectionEEENtB5_10DbExecutor7executeINtNtCsk11oWLwBebd_5alloc3vec3VecNtNtNtB7_7service6weight12WeightTargetENvMs_B4e_B4c_3allE0B7_
FNDA:0,_RNCINvXNtCs99Oc0knXXS8_12librefit_lib2dbINtNtCs8AAiN7pm6Jl_5tauri5state5StateINtCsdS4sZgL4vFN_4r2d24PoolINtNtCs7M5B8tusgtg_6diesel4r2d217ConnectionManagerNtNtNtB1J_6sqlite10connection16SqliteConnectionEEENtB5_10DbExecutor7executeINtNtCsk11oWLwBebd_5alloc3vec3VecNtNtNtB7_7service6weight13WeightTrackerENCNvB4e_33get_weight_tracker_for_date_range0E0B7_
FNDA:0,_RNCINvXNtCs99Oc0knXXS8_12librefit_lib2dbINtNtCs8AAiN7pm6Jl_5tauri5state5StateINtCsdS4sZgL4vFN_4r2d24PoolINtNtCs7M5B8tusgtg_6diesel4r2d217ConnectionManagerNtNtNtB1J_6sqlite10connection16SqliteConnectionEEENtB5_10DbExecutor7executeNtNtNtB7_7service4body8BodyDataNCNvB3H_16update_body_data0E0B7_
FNDA:0,_RNCINvXNtCs99Oc0knXXS8_12librefit_lib2dbINtNtCs8AAiN7pm6Jl_5tauri5state5StateINtCsdS4sZgL4vFN_4r2d24PoolINtNtCs7M5B8tusgtg_6diesel4r2d217ConnectionManagerNtNtNtB1J_6sqlite10connection16SqliteConnectionEEENtB5_10DbExecutor7executeNtNtNtB7_7service4body8BodyDataNvMB3H_B3F_3getE0B7_
FNDA:0,_RNCINvXNtCs99Oc0knXXS8_12librefit_lib2dbINtNtCs8AAiN7pm6Jl_5tauri5state5StateINtCsdS4sZgL4vFN_4r2d24PoolINtNtCs7M5B8tusgtg_6diesel4r2d217ConnectionManagerNtNtNtB1J_6sqlite10connection16SqliteConnectionEEENtB5_10DbExecutor7executeNtNtNtB7_7service4user9LibreUserNCNvB3H_11update_user0E0B7_
FNDA:0,_RNCINvXNtCs99Oc0knXXS8_12librefit_lib2dbINtNtCs8AAiN7pm6Jl_5tauri5state5StateINtCsdS4sZgL4vFN_4r2d24PoolINtNtCs7M5B8tusgtg_6diesel4r2d217ConnectionManagerNtNtNtB1J_6sqlite10connection16SqliteConnectionEEENtB5_10DbExecutor7executeNtNtNtB7_7service6intake12IntakeTargetNCNvB3H_21create_calorie_target0E0B7_
FNDA:0,_RNCINvXNtCs99Oc0knXXS8_12librefit_lib2dbINtNtCs8AAiN7pm6Jl_5tauri5state5StateINtCsdS4sZgL4vFN_4r2d24PoolINtNtCs7M5B8tusgtg_6diesel4r2d217ConnectionManagerNtNtNtB1J_6sqlite10connection16SqliteConnectionEEENtB5_10DbExecutor7executeNtNtNtB7_7service6intake12IntakeTargetNvMs_B3H_B3F_9find_lastE0B7_
FNDA:0,_RNCINvXNtCs99Oc0knXXS8_12librefit_lib2dbINtNtCs8AAiN7pm6Jl_5tauri5state5StateINtCsdS4sZgL4vFN_4r2d24PoolINtNtCs7M5B8tusgtg_6diesel4r2d217ConnectionManagerNtNtNtB1J_6sqlite10connection16SqliteConnectionEEENtB5_10DbExecutor7executeNtNtNtB7_7service6intake6IntakeNCNvB3H_28create_calorie_tracker_entry0E0B7_
FNDA:0,_RNCINvXNtCs99Oc0knXXS8_12librefit_lib2dbINtNtCs8AAiN7pm6Jl_5tauri5state5StateINtCsdS4sZgL4vFN_4r2d24PoolINtNtCs7M5B8tusgtg_6diesel4r2d217ConnectionManagerNtNtNtB1J_6sqlite10connection16SqliteConnectionEEENtB5_10DbExecutor7executeNtNtNtB7_7service6intake6IntakeNCNvB3H_28update_calorie_tracker_entry0E0B7_
FNDA:0,_RNCINvXNtCs99Oc0knXXS8_12librefit_lib2dbINtNtCs8AAiN7pm6Jl_5tauri5state5StateINtCsdS4sZgL4vFN_4r2d24PoolINtNtCs7M5B8tusgtg_6diesel4r2d217ConnectionManagerNtNtNtB1J_6sqlite10connection16SqliteConnectionEEENtB5_10DbExecutor7executeNtNtNtB7_7service6weight12WeightTargetNCNvB3H_20create_weight_target0E0B7_
FNDA:0,_RNCINvXNtCs99Oc0knXXS8_12librefit_lib2dbINtNtCs8AAiN7pm6Jl_5tauri5state5StateINtCsdS4sZgL4vFN_4r2d24PoolINtNtCs7M5B8tusgtg_6diesel4r2d217ConnectionManagerNtNtNtB1J_6sqlite10connection16SqliteConnectionEEENtB5_10DbExecutor7executeNtNtNtB7_7service6weight12WeightTargetNCNvB3H_20update_weight_target0E0B7_
FNDA:0,_RNCINvXNtCs99Oc0knXXS8_12librefit_lib2dbINtNtCs8AAiN7pm6Jl_5tauri5state5StateINtCsdS4sZgL4vFN_4r2d24PoolINtNtCs7M5B8tusgtg_6diesel4r2d217ConnectionManagerNtNtNtB1J_6sqlite10connection16SqliteConnectionEEENtB5_10DbExecutor7executeNtNtNtB7_7service6weight12WeightTargetNvMs_B3H_B3F_10get_latestE0B7_
FNDA:0,_RNCINvXNtCs99Oc0knXXS8_12librefit_lib2dbINtNtCs8AAiN7pm6Jl_5tauri5state5StateINtCsdS4sZgL4vFN_4r2d24PoolINtNtCs7M5B8tusgtg_6diesel4r2d217ConnectionManagerNtNtNtB1J_6sqlite10connection16SqliteConnectionEEENtB5_10DbExecutor7executeNtNtNtB7_7service6weight13WeightTrackerNCNvB3H_27create_weight_tracker_entry0E0B7_
FNDA:0,_RNCINvXNtCs99Oc0knXXS8_12librefit_lib2dbINtNtCs8AAiN7pm6Jl_5tauri5state5StateINtCsdS4sZgL4vFN_4r2d24PoolINtNtCs7M5B8tusgtg_6diesel4r2d217ConnectionManagerNtNtNtB1J_6sqlite10connection16SqliteConnectionEEENtB5_10DbExecutor7executeNtNtNtB7_7service6weight13WeightTrackerNCNvB3H_27update_weight_tracker_entry0E0B7_
FNDA:0,_RNCINvXNtCs99Oc0knXXS8_12librefit_lib2dbINtNtCs8AAiN7pm6Jl_5tauri5state5StateINtCsdS4sZgL4vFN_4r2d24PoolINtNtCs7M5B8tusgtg_6diesel4r2d217ConnectionManagerNtNtNtB1J_6sqlite10connection16SqliteConnectionEEENtB5_10DbExecutor7executejNCNvNtNtB7_7service6intake28delete_calorie_tracker_entry0E0B7_
FNDA:0,_RNCINvXNtCs99Oc0knXXS8_12librefit_lib2dbINtNtCs8AAiN7pm6Jl_5tauri5state5StateINtCsdS4sZgL4vFN_4r2d24PoolINtNtCs7M5B8tusgtg_6diesel4r2d217ConnectionManagerNtNtNtB1J_6sqlite10connection16SqliteConnectionEEENtB5_10DbExecutor7executejNCNvNtNtB7_7service6weight20delete_weight_target0E0B7_
FNDA:0,_RNCINvXNtCs99Oc0knXXS8_12librefit_lib2dbINtNtCs8AAiN7pm6Jl_5tauri5state5StateINtCsdS4sZgL4vFN_4r2d24PoolINtNtCs7M5B8tusgtg_6diesel4r2d217ConnectionManagerNtNtNtB1J_6sqlite10connection16SqliteConnectionEEENtB5_10DbExecutor7executejNCNvNtNtB7_7service6weight27delete_weight_tracker_entry0E0B7_
FNDA:2,_RINvXNtCs99Oc0knXXS8_12librefit_lib2dbINtNtCs8AAiN7pm6Jl_5tauri5state5StateINtCsdS4sZgL4vFN_4r2d24PoolINtNtCs7M5B8tusgtg_6diesel4r2d217ConnectionManagerNtNtNtB1H_6sqlite10connection16SqliteConnectionEEENtB3_10DbExecutor7executeINtNtCs1FLWZe5rD62_4core6option6OptionNtNtNtB5_7service4user9LibreUserENCNvB4h_8get_user0EB5_
FNDA:1,_RINvXNtCs99Oc0knXXS8_12librefit_lib2dbINtNtCs8AAiN7pm6Jl_5tauri5state5StateINtCsdS4sZgL4vFN_4r2d24PoolINtNtCs7M5B8tusgtg_6diesel4r2d217ConnectionManagerNtNtNtB1H_6sqlite10connection16SqliteConnectionEEENtB3_10DbExecutor7executeINtNtCsk11oWLwBebd_5alloc3vec3VecNtNtB3I_6string6StringENCNvNtNtB5_7service6intake34get_calorie_tracker_dates_in_range0EB5_
FNDA:1,_RINvXNtCs99Oc0knXXS8_12librefit_lib2dbINtNtCs8AAiN7pm6Jl_5tauri5state5StateINtCsdS4sZgL4vFN_4r2d24PoolINtNtCs7M5B8tusgtg_6diesel4r2d217ConnectionManagerNtNtNtB1H_6sqlite10connection16SqliteConnectionEEENtB3_10DbExecutor7executeINtNtCsk11oWLwBebd_5alloc3vec3VecNtNtNtB5_7service6intake12FoodCategoryENvMs0_B4c_B4a_3allEB5_
FNDA:1,_RINvXNtCs99Oc0knXXS8_12librefit_lib2dbINtNtCs8AAiN7pm6Jl_5tauri5state5StateINtCsdS4sZgL4vFN_4r2d24PoolINtNtCs7M5B8tusgtg_6diesel4r2d217ConnectionManagerNtNtNtB1H_6sqlite10connection16SqliteConnectionEEENtB3_10DbExecutor7executeINtNtCsk11oWLwBebd_5alloc3vec3VecNtNtNtB5_7service6intake6IntakeENCNvB4c_34get_calorie_tracker_for_date_range0EB5_
FNDA:0,_RINvXNtCs99Oc0knXXS8_12librefit_lib2dbINtNtCs8AAiN7pm6Jl_5tauri5state5StateINtCsdS4sZgL4vFN_4r2d24PoolINtNtCs7M5B8tusgtg_6diesel4r2d217ConnectionManagerNtNtNtB1H_6sqlite10connection16SqliteConnectionEEENtB3_10DbExecutor7executeINtNtCsk11oWLwBebd_5alloc3vec3VecNtNtNtB5_7service6weight12WeightTargetENvMs_B4c_B4a_3allEB5_
FNDA:3,_RINvXNtCs99Oc0knXXS8_12librefit_lib2dbINtNtCs8AAiN7pm6Jl_5tauri5state5StateINtCsdS4sZgL4vFN_4r2d24PoolINtNtCs7M5B8tusgtg_6diesel4r2d217ConnectionManagerNtNtNtB1H_6sqlite10connection16SqliteConnectionEEENtB3_10DbExecutor7executeINtNtCsk11oWLwBebd_5alloc3vec3VecNtNtNtB5_7service6weight13WeightTrackerENCNvB4c_33get_weight_tracker_for_date_range0EB5_
FNDA:9,_RINvXNtCs99Oc0knXXS8_12librefit_lib2dbINtNtCs8AAiN7pm6Jl_5tauri5state5StateINtCsdS4sZgL4vFN_4r2d24PoolINtNtCs7M5B8tusgtg_6diesel4r2d217ConnectionManagerNtNtNtB1H_6sqlite10connection16SqliteConnectionEEENtB3_10DbExecutor7executeNtNtNtB5_7service4body8BodyDataNCNvB3F_16update_body_data0EB5_
FNDA:2,_RINvXNtCs99Oc0knXXS8_12librefit_lib2dbINtNtCs8AAiN7pm6Jl_5tauri5state5StateINtCsdS4sZgL4vFN_4r2d24PoolINtNtCs7M5B8tusgtg_6diesel4r2d217ConnectionManagerNtNtNtB1H_6sqlite10connection16SqliteConnectionEEENtB3_10DbExecutor7executeNtNtNtB5_7service4body8BodyDataNvMB3F_B3D_3getEB5_
FNDA:6,_RINvXNtCs99Oc0knXXS8_12librefit_lib2dbINtNtCs8AAiN7pm6Jl_5tauri5state5StateINtCsdS4sZgL4vFN_4r2d24PoolINtNtCs7M5B8tusgtg_6diesel4r2d217ConnectionManagerNtNtNtB1H_6sqlite10connection16SqliteConnectionEEENtB3_10DbExecutor7executeNtNtNtB5_7service4user9LibreUserNCNvB3F_11update_user0EB5_
FNDA:11,_RINvXNtCs99Oc0knXXS8_12librefit_lib2dbINtNtCs8AAiN7pm6Jl_5tauri5state5StateINtCsdS4sZgL4vFN_4r2d24PoolINtNtCs7M5B8tusgtg_6diesel4r2d217ConnectionManagerNtNtNtB1H_6sqlite10connection16SqliteConnectionEEENtB3_10DbExecutor7executeNtNtNtB5_7service6intake12IntakeTargetNCNvB3F_21create_calorie_target0EB5_
FNDA:2,_RINvXNtCs99Oc0knXXS8_12librefit_lib2dbINtNtCs8AAiN7pm6Jl_5tauri5state5StateINtCsdS4sZgL4vFN_4r2d24PoolINtNtCs7M5B8tusgtg_6diesel4r2d217ConnectionManagerNtNtNtB1H_6sqlite10connection16SqliteConnectionEEENtB3_10DbExecutor7executeNtNtNtB5_7service6intake12IntakeTargetNvMs_B3F_B3D_9find_lastEB5_
FNDA:33,_RINvXNtCs99Oc0knXXS8_12librefit_lib2dbINtNtCs8AAiN7pm6Jl_5tauri5state5StateINtCsdS4sZgL4vFN_4r2d24PoolINtNtCs7M5B8tusgtg_6diesel4r2d217ConnectionManagerNtNtNtB1H_6sqlite10connection16SqliteConnectionEEENtB3_10DbExecutor7executeNtNtNtB5_7service6intake6IntakeNCNvB3F_28create_calorie_tracker_entry0EB5_
FNDA:1,_RINvXNtCs99Oc0knXXS8_12librefit_lib2dbINtNtCs8AAiN7pm6Jl_5tauri5state5StateINtCsdS4sZgL4vFN_4r2d24PoolINtNtCs7M5B8tusgtg_6diesel4r2d217ConnectionManagerNtNtNtB1H_6sqlite10connection16SqliteConnectionEEENtB3_10DbExecutor7executeNtNtNtB5_7service6intake6IntakeNCNvB3F_28update_calorie_tracker_entry0EB5_
FNDA:9,_RINvXNtCs99Oc0knXXS8_12librefit_lib2dbINtNtCs8AAiN7pm6Jl_5tauri5state5StateINtCsdS4sZgL4vFN_4r2d24PoolINtNtCs7M5B8tusgtg_6diesel4r2d217ConnectionManagerNtNtNtB1H_6sqlite10connection16SqliteConnectionEEENtB3_10DbExecutor7executeNtNtNtB5_7service6weight12WeightTargetNCNvB3F_20create_weight_target0EB5_
FNDA:0,_RINvXNtCs99Oc0knXXS8_12librefit_lib2dbINtNtCs8AAiN7pm6Jl_5tauri5state5StateINtCsdS4sZgL4vFN_4r2d24PoolINtNtCs7M5B8tusgtg_6diesel4r2d217ConnectionManagerNtNtNtB1H_6sqlite10connection16SqliteConnectionEEENtB3_10DbExecutor7executeNtNtNtB5_7service6weight12WeightTargetNCNvB3F_20update_weight_target0EB5_
FNDA:0,_RINvXNtCs99Oc0knXXS8_12librefit_lib2dbINtNtCs8AAiN7pm6Jl_5tauri5state5StateINtCsdS4sZgL4vFN_4r2d24PoolINtNtCs7M5B8tusgtg_6diesel4r2d217ConnectionManagerNtNtNtB1H_6sqlite10connection16SqliteConnectionEEENtB3_10DbExecutor7executeNtNtNtB5_7service6weight12WeightTargetNvMs_B3F_B3D_10get_latestEB5_
FNDA:16,_RINvXNtCs99Oc0knXXS8_12librefit_lib2dbINtNtCs8AAiN7pm6Jl_5tauri5state5StateINtCsdS4sZgL4vFN_4r2d24PoolINtNtCs7M5B8tusgtg_6diesel4r2d217ConnectionManagerNtNtNtB1H_6sqlite10connection16SqliteConnectionEEENtB3_10DbExecutor7executeNtNtNtB5_7service6weight13WeightTrackerNCNvB3F_27create_weight_tracker_entry0EB5_
FNDA:1,_RINvXNtCs99Oc0knXXS8_12librefit_lib2dbINtNtCs8AAiN7pm6Jl_5tauri5state5StateINtCsdS4sZgL4vFN_4r2d24PoolINtNtCs7M5B8tusgtg_6diesel4r2d217ConnectionManagerNtNtNtB1H_6sqlite10connection16SqliteConnectionEEENtB3_10DbExecutor7executeNtNtNtB5_7service6weight13WeightTrackerNCNvB3F_27update_weight_tracker_entry0EB5_
FNDA:1,_RINvXNtCs99Oc0knXXS8_12librefit_lib2dbINtNtCs8AAiN7pm6Jl_5tauri5state5StateINtCsdS4sZgL4vFN_4r2d24PoolINtNtCs7M5B8tusgtg_6diesel4r2d217ConnectionManagerNtNtNtB1H_6sqlite10connection16SqliteConnectionEEENtB3_10DbExecutor7executejNCNvNtNtB5_7service6intake28delete_calorie_tracker_entry0EB5_
FNDA:0,_RINvXNtCs99Oc0knXXS8_12librefit_lib2dbINtNtCs8AAiN7pm6Jl_5tauri5state5StateINtCsdS4sZgL4vFN_4r2d24PoolINtNtCs7M5B8tusgtg_6diesel4r2d217ConnectionManagerNtNtNtB1H_6sqlite10connection16SqliteConnectionEEENtB3_10DbExecutor7executejNCNvNtNtB5_7service6weight20delete_weight_target0EB5_
FNDA:2,_RINvXNtCs99Oc0knXXS8_12librefit_lib2dbINtNtCs8AAiN7pm6Jl_5tauri5state5StateINtCsdS4sZgL4vFN_4r2d24PoolINtNtCs7M5B8tusgtg_6diesel4r2d217ConnectionManagerNtNtNtB1H_6sqlite10connection16SqliteConnectionEEENtB3_10DbExecutor7executejNCNvNtNtB5_7service6weight27delete_weight_tracker_entry0EB5_
FNDA:0,_RINvXNtCskxb0fiIX3sM_12librefit_lib2dbINtNtCs8AAiN7pm6Jl_5tauri5state5StateINtCsdS4sZgL4vFN_4r2d24PoolINtNtCs7M5B8tusgtg_6diesel4r2d217ConnectionManagerNtNtNtB1H_6sqlite10connection16SqliteConnectionEEENtB3_10DbExecutor7executeppEB5_
FNDA:0,_RNCINvXNtCskxb0fiIX3sM_12librefit_lib2dbINtNtCs8AAiN7pm6Jl_5tauri5state5StateINtCsdS4sZgL4vFN_4r2d24PoolINtNtCs7M5B8tusgtg_6diesel4r2d217ConnectionManagerNtNtNtB1J_6sqlite10connection16SqliteConnectionEEENtB5_10DbExecutor7executeppE0B7_
FNF:2
FNH:1
DA:15,101
DA:16,101
DA:17,101
DA:19,101
DA:20,101
DA:21,101
DA:22,101
DA:23,101
BRF:0
BRH:0
LF:9
LH:8
end_of_record
SF:/Users/steff-man/Projects/librefit/src-tauri/src/db/schema.rs
FN:47,_RNvXININtNtNtCs99Oc0knXXS8_12librefit_lib2db6schema10libre_users0_0pENtB5_5tableINtNtCs7M5B8tusgtg_6diesel13query_builder13QueryFragmentpE8walk_astBb_
FN:47,_RNvXININtNtNtCs99Oc0knXXS8_12librefit_lib2db6schema10libre_usersa_0ppENtB5_5tableINtNtNtNtCs7M5B8tusgtg_6diesel12query_source8aliasing18field_alias_mapper48FieldAliasMapperAssociatedTypesDisjointnessTrickB16_ppE3mapBb_
FN:47,_RNvXININtNtNtCs99Oc0knXXS8_12librefit_lib2db6schema10libre_usersc_0pppENtB5_5tableINtNtNtCs7M5B8tusgtg_6diesel12query_source5joins6JoinToINtB1l_4JoinpppEE11join_targetBb_
FN:47,_RNvXININtNtNtCs99Oc0knXXS8_12librefit_lib2db6schema10libre_usersd_0ppENtB5_5tableINtNtNtCs7M5B8tusgtg_6diesel12query_source5joins6JoinToINtB1k_6JoinOnppEE11join_targetBb_
FN:47,_RNvXININtNtNtCs99Oc0knXXS8_12librefit_lib2db6schema10libre_userse_0ppppppppENtB5_5tableINtNtNtCs7M5B8tusgtg_6diesel12query_source5joins6JoinToINtNtNtB1u_13query_builder16select_statement15SelectStatementINtNtB2l_11from_clause10FromClausepEpppppppEE11join_targetBb_
FN:47,_RNvXININtNtNtCs99Oc0knXXS8_12librefit_lib2db6schema10libre_usersf_0pppENtB5_5tableINtNtNtCs7M5B8tusgtg_6diesel12query_source5joins6JoinToINtNtNtNtB1p_13query_builder16select_statement5boxed20BoxedSelectStatementINtNtB2i_11from_clause10FromClausepEppEE11join_targetBb_
FN:47,_RNvXININtNtNtCs99Oc0knXXS8_12librefit_lib2db6schema10libre_usersg_0pENtB5_5tableINtNtNtCs7M5B8tusgtg_6diesel12query_source5joins6JoinToINtNtNtB1l_8aliasing5alias5AliaspEE11join_targetBb_
FN:47,_RNvXININtNtNtCs99Oc0knXXS8_12librefit_lib2db6schema10libre_usersh_0pENtB5_5tableINtNtCs7M5B8tusgtg_6diesel10insertable10InsertablepE6valuesBb_
FN:47,_RNvXININtNtNtCs99Oc0knXXS8_12librefit_lib2db6schema10libre_usersi_0pERNtB5_5tableINtNtCs7M5B8tusgtg_6diesel10insertable10InsertablepE6valuesBb_
FN:18,_RNvXININtNtNtCs99Oc0knXXS8_12librefit_lib2db6schema13food_categorys0_0pENtB5_5tableINtNtCs7M5B8tusgtg_6diesel13query_builder13QueryFragmentpE8walk_astBb_
FN:18,_RNvXININtNtNtCs99Oc0knXXS8_12librefit_lib2db6schema13food_categorysa_0ppENtB5_5tableINtNtNtNtCs7M5B8tusgtg_6diesel12query_source8aliasing18field_alias_mapper48FieldAliasMapperAssociatedTypesDisjointnessTrickB19_ppE3mapBb_
FN:18,_RNvXININtNtNtCs99Oc0knXXS8_12librefit_lib2db6schema13food_categorysc_0pppENtB5_5tableINtNtNtCs7M5B8tusgtg_6diesel12query_source5joins6JoinToINtB1o_4JoinpppEE11join_targetBb_
FN:18,_RNvXININtNtNtCs99Oc0knXXS8_12librefit_lib2db6schema13food_categorysd_0ppENtB5_5tableINtNtNtCs7M5B8tusgtg_6diesel12query_source5joins6JoinToINtB1n_6JoinOnppEE11join_targetBb_
FN:18,_RNvXININtNtNtCs99Oc0knXXS8_12librefit_lib2db6schema13food_categoryse_0ppppppppENtB5_5tableINtNtNtCs7M5B8tusgtg_6diesel12query_source5joins6JoinToINtNtNtB1x_13query_builder16select_statement15SelectStatementINtNtB2o_11from_clause10FromClausepEpppppppEE11join_targetBb_
FN:18,_RNvXININtNtNtCs99Oc0knXXS8_12librefit_lib2db6schema13food_categorysf_0pppENtB5_5tableINtNtNtCs7M5B8tusgtg_6diesel12query_source5joins6JoinToINtNtNtNtB1s_13query_builder16select_statement5boxed20BoxedSelectStatementINtNtB2l_11from_clause10FromClausepEppEE11join_targetBb_
FN:18,_RNvXININtNtNtCs99Oc0knXXS8_12librefit_lib2db6schema13food_categorysg_0pENtB5_5tableINtNtNtCs7M5B8tusgtg_6diesel12query_source5joins6JoinToINtNtNtB1o_8aliasing5alias5AliaspEE11join_targetBb_
FN:18,_RNvXININtNtNtCs99Oc0knXXS8_12librefit_lib2db6schema13food_categorysh_0pENtB5_5tableINtNtCs7M5B8tusgtg_6diesel10insertable10InsertablepE6valuesBb_
FN:18,_RNvXININtNtNtCs99Oc0knXXS8_12librefit_lib2db6schema13food_categorysi_0pERNtB5_5tableINtNtCs7M5B8tusgtg_6diesel10insertable10InsertablepE6valuesBb_
FN:39,_RNvXININtNtNtCs99Oc0knXXS8_12librefit_lib2db6schema13intake_targets0_0pENtB5_5tableINtNtCs7M5B8tusgtg_6diesel13query_builder13QueryFragmentpE8walk_astBb_
FN:39,_RNvXININtNtNtCs99Oc0knXXS8_12librefit_lib2db6schema13intake_targetsa_0ppENtB5_5tableINtNtNtNtCs7M5B8tusgtg_6diesel12query_source8aliasing18field_alias_mapper48FieldAliasMapperAssociatedTypesDisjointnessTrickB19_ppE3mapBb_
FN:39,_RNvXININtNtNtCs99Oc0knXXS8_12librefit_lib2db6schema13intake_targetsc_0pppENtB5_5tableINtNtNtCs7M5B8tusgtg_6diesel12query_source5joins6JoinToINtB1o_4JoinpppEE11join_targetBb_
FN:39,_RNvXININtNtNtCs99Oc0knXXS8_12librefit_lib2db6schema13intake_targetsd_0ppENtB5_5tableINtNtNtCs7M5B8tusgtg_6diesel12query_source5joins6JoinToINtB1n_6JoinOnppEE11join_targetBb_
FN:39,_RNvXININtNtNtCs99Oc0knXXS8_12librefit_lib2db6schema13intake_targetse_0ppppppppENtB5_5tableINtNtNtCs7M5B8tusgtg_6diesel12query_source5joins6JoinToINtNtNtB1x_13query_builder16select_statement15SelectStatementINtNtB2o_11from_clause10FromClausepEpppppppEE11join_targetBb_
FN:39,_RNvXININtNtNtCs99Oc0knXXS8_12librefit_lib2db6schema13intake_targetsf_0pppENtB5_5tableINtNtNtCs7M5B8tusgtg_6diesel12query_source5joins6JoinToINtNtNtNtB1s_13query_builder16select_statement5boxed20BoxedSelectStatementINtNtB2l_11from_clause10FromClausepEppEE11join_targetBb_
FN:39,_RNvXININtNtNtCs99Oc0knXXS8_12librefit_lib2db6schema13intake_targetsg_0pENtB5_5tableINtNtNtCs7M5B8tusgtg_6diesel12query_source5joins6JoinToINtNtNtB1o_8aliasing5alias5AliaspEE11join_targetBb_
FN:39,_RNvXININtNtNtCs99Oc0knXXS8_12librefit_lib2db6schema13intake_targetsh_0pENtB5_5tableINtNtCs7M5B8tusgtg_6diesel10insertable10InsertablepE6valuesBb_
FN:39,_RNvXININtNtNtCs99Oc0knXXS8_12librefit_lib2db6schema13intake_targetsi_0pERNtB5_5tableINtNtCs7M5B8tusgtg_6diesel10insertable10InsertablepE6valuesBb_
FN:58,_RNvXININtNtNtCs99Oc0knXXS8_12librefit_lib2db6schema13weight_targets0_0pENtB5_5tableINtNtCs7M5B8tusgtg_6diesel13query_builder13QueryFragmentpE8walk_astBb_
FN:58,_RNvXININtNtNtCs99Oc0knXXS8_12librefit_lib2db6schema13weight_targetsa_0ppENtB5_5tableINtNtNtNtCs7M5B8tusgtg_6diesel12query_source8aliasing18field_alias_mapper48FieldAliasMapperAssociatedTypesDisjointnessTrickB19_ppE3mapBb_
FN:58,_RNvXININtNtNtCs99Oc0knXXS8_12librefit_lib2db6schema13weight_targetsc_0pppENtB5_5tableINtNtNtCs7M5B8tusgtg_6diesel12query_source5joins6JoinToINtB1o_4JoinpppEE11join_targetBb_
FN:58,_RNvXININtNtNtCs99Oc0knXXS8_12librefit_lib2db6schema13weight_targetsd_0ppENtB5_5tableINtNtNtCs7M5B8tusgtg_6diesel12query_source5joins6JoinToINtB1n_6JoinOnppEE11join_targetBb_
FN:58,_RNvXININtNtNtCs99Oc0knXXS8_12librefit_lib2db6schema13weight_targetse_0ppppppppENtB5_5tableINtNtNtCs7M5B8tusgtg_6diesel12query_source5joins6JoinToINtNtNtB1x_13query_builder16select_statement15SelectStatementINtNtB2o_11from_clause10FromClausepEpppppppEE11join_targetBb_
FN:58,_RNvXININtNtNtCs99Oc0knXXS8_12librefit_lib2db6schema13weight_targetsf_0pppENtB5_5tableINtNtNtCs7M5B8tusgtg_6diesel12query_source5joins6JoinToINtNtNtNtB1s_13query_builder16select_statement5boxed20BoxedSelectStatementINtNtB2l_11from_clause10FromClausepEppEE11join_targetBb_
FN:58,_RNvXININtNtNtCs99Oc0knXXS8_12librefit_lib2db6schema13weight_targetsg_0pENtB5_5tableINtNtNtCs7M5B8tusgtg_6diesel12query_source5joins6JoinToINtNtNtB1o_8aliasing5alias5AliaspEE11join_targetBb_
FN:58,_RNvXININtNtNtCs99Oc0knXXS8_12librefit_lib2db6schema13weight_targetsh_0pENtB5_5tableINtNtCs7M5B8tusgtg_6diesel10insertable10InsertablepE6valuesBb_
FN:58,_RNvXININtNtNtCs99Oc0knXXS8_12librefit_lib2db6schema13weight_targetsi_0pERNtB5_5tableINtNtCs7M5B8tusgtg_6diesel10insertable10InsertablepE6valuesBb_
FN:66,_RNvXININtNtNtCs99Oc0knXXS8_12librefit_lib2db6schema14weight_trackers0_0pENtB5_5tableINtNtCs7M5B8tusgtg_6diesel13query_builder13QueryFragmentpE8walk_astBb_
FN:66,_RNvXININtNtNtCs99Oc0knXXS8_12librefit_lib2db6schema14weight_trackersa_0ppENtB5_5tableINtNtNtNtCs7M5B8tusgtg_6diesel12query_source8aliasing18field_alias_mapper48FieldAliasMapperAssociatedTypesDisjointnessTrickB1a_ppE3mapBb_
FN:66,_RNvXININtNtNtCs99Oc0knXXS8_12librefit_lib2db6schema14weight_trackersc_0pppENtB5_5tableINtNtNtCs7M5B8tusgtg_6diesel12query_source5joins6JoinToINtB1p_4JoinpppEE11join_targetBb_
FN:66,_RNvXININtNtNtCs99Oc0knXXS8_12librefit_lib2db6schema14weight_trackersd_0ppENtB5_5tableINtNtNtCs7M5B8tusgtg_6diesel12query_source5joins6JoinToINtB1o_6JoinOnppEE11join_targetBb_
FN:66,_RNvXININtNtNtCs99Oc0knXXS8_12librefit_lib2db6schema14weight_trackerse_0ppppppppENtB5_5tableINtNtNtCs7M5B8tusgtg_6diesel12query_source5joins6JoinToINtNtNtB1y_13query_builder16select_statement15SelectStatementINtNtB2p_11from_clause10FromClausepEpppppppEE11join_targetBb_
FN:66,_RNvXININtNtNtCs99Oc0knXXS8_12librefit_lib2db6schema14weight_trackersf_0pppENtB5_5tableINtNtNtCs7M5B8tusgtg_6diesel12query_source5joins6JoinToINtNtNtNtB1t_13query_builder16select_statement5boxed20BoxedSelectStatementINtNtB2m_11from_clause10FromClausepEppEE11join_targetBb_
FN:66,_RNvXININtNtNtCs99Oc0knXXS8_12librefit_lib2db6schema14weight_trackersg_0pENtB5_5tableINtNtNtCs7M5B8tusgtg_6diesel12query_source5joins6JoinToINtNtNtB1p_8aliasing5alias5AliaspEE11join_targetBb_
FN:66,_RNvXININtNtNtCs99Oc0knXXS8_12librefit_lib2db6schema14weight_trackersh_0pENtB5_5tableINtNtCs7M5B8tusgtg_6diesel10insertable10InsertablepE6valuesBb_
FN:66,_RNvXININtNtNtCs99Oc0knXXS8_12librefit_lib2db6schema14weight_trackersi_0pERNtB5_5tableINtNtCs7M5B8tusgtg_6diesel10insertable10InsertablepE6valuesBb_
FN:28,_RNvXININtNtNtCs99Oc0knXXS8_12librefit_lib2db6schema6intakes0_0pENtB5_5tableINtNtCs7M5B8tusgtg_6diesel13query_builder13QueryFragmentpE8walk_astBb_
FN:28,_RNvXININtNtNtCs99Oc0knXXS8_12librefit_lib2db6schema6intakesa_0ppENtB5_5tableINtNtNtNtCs7M5B8tusgtg_6diesel12query_source8aliasing18field_alias_mapper48FieldAliasMapperAssociatedTypesDisjointnessTrickB11_ppE3mapBb_
FN:28,_RNvXININtNtNtCs99Oc0knXXS8_12librefit_lib2db6schema6intakesc_0pppENtB5_5tableINtNtNtCs7M5B8tusgtg_6diesel12query_source5joins6JoinToINtB1g_4JoinpppEE11join_targetBb_
FN:28,_RNvXININtNtNtCs99Oc0knXXS8_12librefit_lib2db6schema6intakesd_0ppENtB5_5tableINtNtNtCs7M5B8tusgtg_6diesel12query_source5joins6JoinToINtB1f_6JoinOnppEE11join_targetBb_
FN:28,_RNvXININtNtNtCs99Oc0knXXS8_12librefit_lib2db6schema6intakese_0ppppppppENtB5_5tableINtNtNtCs7M5B8tusgtg_6diesel12query_source5joins6JoinToINtNtNtB1p_13query_builder16select_statement15SelectStatementINtNtB2g_11from_clause10FromClausepEpppppppEE11join_targetBb_
FN:28,_RNvXININtNtNtCs99Oc0knXXS8_12librefit_lib2db6schema6intakesf_0pppENtB5_5tableINtNtNtCs7M5B8tusgtg_6diesel12query_source5joins6JoinToINtNtNtNtB1k_13query_builder16select_statement5boxed20BoxedSelectStatementINtNtB2d_11from_clause10FromClausepEppEE11join_targetBb_
FN:28,_RNvXININtNtNtCs99Oc0knXXS8_12librefit_lib2db6schema6intakesg_0pENtB5_5tableINtNtNtCs7M5B8tusgtg_6diesel12query_source5joins6JoinToINtNtNtB1g_8aliasing5alias5AliaspEE11join_targetBb_
FN:28,_RNvXININtNtNtCs99Oc0knXXS8_12librefit_lib2db6schema6intakesh_0pENtB5_5tableINtNtCs7M5B8tusgtg_6diesel10insertable10InsertablepE6valuesBb_
FN:28,_RNvXININtNtNtCs99Oc0knXXS8_12librefit_lib2db6schema6intakesi_0pERNtB5_5tableINtNtCs7M5B8tusgtg_6diesel10insertable10InsertablepE6valuesBb_
FN:11,_RNvXININtNtNtCs99Oc0knXXS8_12librefit_lib2db6schema9body_datas0_0pENtB5_5tableINtNtCs7M5B8tusgtg_6diesel13query_builder13QueryFragmentpE8walk_astBb_
FN:11,_RNvXININtNtNtCs99Oc0knXXS8_12librefit_lib2db6schema9body_datasa_0ppENtB5_5tableINtNtNtNtCs7M5B8tusgtg_6diesel12query_source8aliasing18field_alias_mapper48FieldAliasMapperAssociatedTypesDisjointnessTrickB14_ppE3mapBb_
FN:11,_RNvXININtNtNtCs99Oc0knXXS8_12librefit_lib2db6schema9body_datasc_0pppENtB5_5tableINtNtNtCs7M5B8tusgtg_6diesel12query_source5joins6JoinToINtB1j_4JoinpppEE11join_targetBb_
FN:11,_RNvXININtNtNtCs99Oc0knXXS8_12librefit_lib2db6schema9body_datasd_0ppENtB5_5tableINtNtNtCs7M5B8tusgtg_6diesel12query_source5joins6JoinToINtB1i_6JoinOnppEE11join_targetBb_
FN:11,_RNvXININtNtNtCs99Oc0knXXS8_12librefit_lib2db6schema9body_datase_0ppppppppENtB5_5tableINtNtNtCs7M5B8tusgtg_6diesel12query_source5joins6JoinToINtNtNtB1s_13query_builder16select_statement15SelectStatementINtNtB2j_11from_clause10FromClausepEpppppppEE11join_targetBb_
FN:11,_RNvXININtNtNtCs99Oc0knXXS8_12librefit_lib2db6schema9body_datasf_0pppENtB5_5tableINtNtNtCs7M5B8tusgtg_6diesel12query_source5joins6JoinToINtNtNtNtB1n_13query_builder16select_statement5boxed20BoxedSelectStatementINtNtB2g_11from_clause10FromClausepEppEE11join_targetBb_
FN:11,_RNvXININtNtNtCs99Oc0knXXS8_12librefit_lib2db6schema9body_datasg_0pENtB5_5tableINtNtNtCs7M5B8tusgtg_6diesel12query_source5joins6JoinToINtNtNtB1j_8aliasing5alias5AliaspEE11join_targetBb_
FN:11,_RNvXININtNtNtCs99Oc0knXXS8_12librefit_lib2db6schema9body_datash_0pENtB5_5tableINtNtCs7M5B8tusgtg_6diesel10insertable10InsertablepE6valuesBb_
FN:11,_RNvXININtNtNtCs99Oc0knXXS8_12librefit_lib2db6schema9body_datasi_0pERNtB5_5tableINtNtCs7M5B8tusgtg_6diesel10insertable10InsertablepE6valuesBb_
FN:47,_RNvXININtNtNtNtCs99Oc0knXXS8_12librefit_lib2db6schema10libre_user7columnss0_0pENtB5_4starINtNtCs7M5B8tusgtg_6diesel13query_builder13QueryFragmentpE8walk_astBd_
FN:47,_RNvXININtNtNtNtCs99Oc0knXXS8_12librefit_lib2db6schema10libre_user7columnssg_0pENtB5_2idINtNtNtCs1FLWZe5rD62_4core3ops5arith3AddpE3addBd_
FN:47,_RNvXININtNtNtNtCs99Oc0knXXS8_12librefit_lib2db6schema10libre_user7columnssh_0pENtB5_2idINtNtNtCs1FLWZe5rD62_4core3ops5arith3SubpE3subBd_
FN:47,_RNvXININtNtNtNtCs99Oc0knXXS8_12librefit_lib2db6schema10libre_user7columnssi_0pENtB5_2idINtNtNtCs1FLWZe5rD62_4core3ops5arith3DivpE3divBd_
FN:47,_RNvXININtNtNtNtCs99Oc0knXXS8_12librefit_lib2db6schema10libre_user7columnssj_0pENtB5_2idINtNtNtCs1FLWZe5rD62_4core3ops5arith3MulpE3mulBd_
FN:18,_RNvXININtNtNtNtCs99Oc0knXXS8_12librefit_lib2db6schema13food_category7columnss0_0pENtB5_4starINtNtCs7M5B8tusgtg_6diesel13query_builder13QueryFragmentpE8walk_astBd_
FN:39,_RNvXININtNtNtNtCs99Oc0knXXS8_12librefit_lib2db6schema13intake_target7columnss0_0pENtB5_4starINtNtCs7M5B8tusgtg_6diesel13query_builder13QueryFragmentpE8walk_astBd_
FN:39,_RNvXININtNtNtNtCs99Oc0knXXS8_12librefit_lib2db6schema13intake_target7columnss10_0pENtB5_16maximum_caloriesINtNtNtCs1FLWZe5rD62_4core3ops5arith3MulpE3mulBd_
FN:39,_RNvXININtNtNtNtCs99Oc0knXXS8_12librefit_lib2db6schema13intake_target7columnss1r_0pENtB5_15target_caloriesINtNtNtCs1FLWZe5rD62_4core3ops5arith3AddpE3addBd_
FN:39,_RNvXININtNtNtNtCs99Oc0knXXS8_12librefit_lib2db6schema13intake_target7columnss1s_0pENtB5_15target_caloriesINtNtNtCs1FLWZe5rD62_4core3ops5arith3SubpE3subBd_
FN:39,_RNvXININtNtNtNtCs99Oc0knXXS8_12librefit_lib2db6schema13intake_target7columnss1t_0pENtB5_15target_caloriesINtNtNtCs1FLWZe5rD62_4core3ops5arith3DivpE3divBd_
FN:39,_RNvXININtNtNtNtCs99Oc0knXXS8_12librefit_lib2db6schema13intake_target7columnss1u_0pENtB5_15target_caloriesINtNtNtCs1FLWZe5rD62_4core3ops5arith3MulpE3mulBd_
FN:39,_RNvXININtNtNtNtCs99Oc0knXXS8_12librefit_lib2db6schema13intake_target7columnssX_0pENtB5_16maximum_caloriesINtNtNtCs1FLWZe5rD62_4core3ops5arith3AddpE3addBd_
FN:39,_RNvXININtNtNtNtCs99Oc0knXXS8_12librefit_lib2db6schema13intake_target7columnssY_0pENtB5_16maximum_caloriesINtNtNtCs1FLWZe5rD62_4core3ops5arith3SubpE3subBd_
FN:39,_RNvXININtNtNtNtCs99Oc0knXXS8_12librefit_lib2db6schema13intake_target7columnssZ_0pENtB5_16maximum_caloriesINtNtNtCs1FLWZe5rD62_4core3ops5arith3DivpE3divBd_
FN:39,_RNvXININtNtNtNtCs99Oc0knXXS8_12librefit_lib2db6schema13intake_target7columnssg_0pENtB5_2idINtNtNtCs1FLWZe5rD62_4core3ops5arith3AddpE3addBd_
FN:39,_RNvXININtNtNtNtCs99Oc0knXXS8_12librefit_lib2db6schema13intake_target7columnssh_0pENtB5_2idINtNtNtCs1FLWZe5rD62_4core3ops5arith3SubpE3subBd_
FN:39,_RNvXININtNtNtNtCs99Oc0knXXS8_12librefit_lib2db6schema13intake_target7columnssi_0pENtB5_2idINtNtNtCs1FLWZe5rD62_4core3ops5arith3DivpE3divBd_
FN:39,_RNvXININtNtNtNtCs99Oc0knXXS8_12librefit_lib2db6schema13intake_target7columnssj_0pENtB5_2idINtNtNtCs1FLWZe5rD62_4core3ops5arith3MulpE3mulBd_
FN:58,_RNvXININtNtNtNtCs99Oc0knXXS8_12librefit_lib2db6schema13weight_target7columnss0_0pENtB5_4starINtNtCs7M5B8tusgtg_6diesel13query_builder13QueryFragmentpE8walk_astBd_
FN:58,_RNvXININtNtNtNtCs99Oc0knXXS8_12librefit_lib2db6schema13weight_target7columnss10_0pENtB5_14initial_weightINtNtNtCs1FLWZe5rD62_4core3ops5arith3MulpE3mulBd_
FN:58,_RNvXININtNtNtNtCs99Oc0knXXS8_12librefit_lib2db6schema13weight_target7columnss1r_0pENtB5_13target_weightINtNtNtCs1FLWZe5rD62_4core3ops5arith3AddpE3addBd_
FN:58,_RNvXININtNtNtNtCs99Oc0knXXS8_12librefit_lib2db6schema13weight_target7columnss1s_0pENtB5_13target_weightINtNtNtCs1FLWZe5rD62_4core3ops5arith3SubpE3subBd_
FN:58,_RNvXININtNtNtNtCs99Oc0knXXS8_12librefit_lib2db6schema13weight_target7columnss1t_0pENtB5_13target_weightINtNtNtCs1FLWZe5rD62_4core3ops5arith3DivpE3divBd_
FN:58,_RNvXININtNtNtNtCs99Oc0knXXS8_12librefit_lib2db6schema13weight_target7columnss1u_0pENtB5_13target_weightINtNtNtCs1FLWZe5rD62_4core3ops5arith3MulpE3mulBd_
FN:58,_RNvXININtNtNtNtCs99Oc0knXXS8_12librefit_lib2db6schema13weight_target7columnssX_0pENtB5_14initial_weightINtNtNtCs1FLWZe5rD62_4core3ops5arith3AddpE3addBd_
FN:58,_RNvXININtNtNtNtCs99Oc0knXXS8_12librefit_lib2db6schema13weight_target7columnssY_0pENtB5_14initial_weightINtNtNtCs1FLWZe5rD62_4core3ops5arith3SubpE3subBd_
FN:58,_RNvXININtNtNtNtCs99Oc0knXXS8_12librefit_lib2db6schema13weight_target7columnssZ_0pENtB5_14initial_weightINtNtNtCs1FLWZe5rD62_4core3ops5arith3DivpE3divBd_
FN:58,_RNvXININtNtNtNtCs99Oc0knXXS8_12librefit_lib2db6schema13weight_target7columnssg_0pENtB5_2idINtNtNtCs1FLWZe5rD62_4core3ops5arith3AddpE3addBd_
FN:58,_RNvXININtNtNtNtCs99Oc0knXXS8_12librefit_lib2db6schema13weight_target7columnssh_0pENtB5_2idINtNtNtCs1FLWZe5rD62_4core3ops5arith3SubpE3subBd_
FN:58,_RNvXININtNtNtNtCs99Oc0knXXS8_12librefit_lib2db6schema13weight_target7columnssi_0pENtB5_2idINtNtNtCs1FLWZe5rD62_4core3ops5arith3DivpE3divBd_
FN:58,_RNvXININtNtNtNtCs99Oc0knXXS8_12librefit_lib2db6schema13weight_target7columnssj_0pENtB5_2idINtNtNtCs1FLWZe5rD62_4core3ops5arith3MulpE3mulBd_
FN:66,_RNvXININtNtNtNtCs99Oc0knXXS8_12librefit_lib2db6schema14weight_tracker7columnss0_0pENtB5_4starINtNtCs7M5B8tusgtg_6diesel13query_builder13QueryFragmentpE8walk_astBd_
FN:66,_RNvXININtNtNtNtCs99Oc0knXXS8_12librefit_lib2db6schema14weight_tracker7columnssK_0pENtB5_6amountINtNtNtCs1FLWZe5rD62_4core3ops5arith3AddpE3addBd_
FN:66,_RNvXININtNtNtNtCs99Oc0knXXS8_12librefit_lib2db6schema14weight_tracker7columnssL_0pENtB5_6amountINtNtNtCs1FLWZe5rD62_4core3ops5arith3SubpE3subBd_
FN:66,_RNvXININtNtNtNtCs99Oc0knXXS8_12librefit_lib2db6schema14weight_tracker7columnssM_0pENtB5_6amountINtNtNtCs1FLWZe5rD62_4core3ops5arith3DivpE3divBd_
FN:66,_RNvXININtNtNtNtCs99Oc0knXXS8_12librefit_lib2db6schema14weight_tracker7columnssN_0pENtB5_6amountINtNtNtCs1FLWZe5rD62_4core3ops5arith3MulpE3mulBd_
FN:66,_RNvXININtNtNtNtCs99Oc0knXXS8_12librefit_lib2db6schema14weight_tracker7columnssg_0pENtB5_2idINtNtNtCs1FLWZe5rD62_4core3ops5arith3AddpE3addBd_
FN:66,_RNvXININtNtNtNtCs99Oc0knXXS8_12librefit_lib2db6schema14weight_tracker7columnssh_0pENtB5_2idINtNtNtCs1FLWZe5rD62_4core3ops5arith3SubpE3subBd_
FN:66,_RNvXININtNtNtNtCs99Oc0knXXS8_12librefit_lib2db6schema14weight_tracker7columnssi_0pENtB5_2idINtNtNtCs1FLWZe5rD62_4core3ops5arith3DivpE3divBd_
FN:66,_RNvXININtNtNtNtCs99Oc0knXXS8_12librefit_lib2db6schema14weight_tracker7columnssj_0pENtB5_2idINtNtNtCs1FLWZe5rD62_4core3ops5arith3MulpE3mulBd_
FN:28,_RNvXININtNtNtNtCs99Oc0knXXS8_12librefit_lib2db6schema6intake7columnss0_0pENtB5_4starINtNtCs7M5B8tusgtg_6diesel13query_builder13QueryFragmentpE8walk_astBd_
FN:28,_RNvXININtNtNtNtCs99Oc0knXXS8_12librefit_lib2db6schema6intake7columnssK_0pENtB5_6amountINtNtNtCs1FLWZe5rD62_4core3ops5arith3AddpE3addBd_
FN:28,_RNvXININtNtNtNtCs99Oc0knXXS8_12librefit_lib2db6schema6intake7columnssL_0pENtB5_6amountINtNtNtCs1FLWZe5rD62_4core3ops5arith3SubpE3subBd_
FN:28,_RNvXININtNtNtNtCs99Oc0knXXS8_12librefit_lib2db6schema6intake7columnssM_0pENtB5_6amountINtNtNtCs1FLWZe5rD62_4core3ops5arith3DivpE3divBd_
FN:28,_RNvXININtNtNtNtCs99Oc0knXXS8_12librefit_lib2db6schema6intake7columnssN_0pENtB5_6amountINtNtNtCs1FLWZe5rD62_4core3ops5arith3MulpE3mulBd_
FN:28,_RNvXININtNtNtNtCs99Oc0knXXS8_12librefit_lib2db6schema6intake7columnssg_0pENtB5_2idINtNtNtCs1FLWZe5rD62_4core3ops5arith3AddpE3addBd_
FN:28,_RNvXININtNtNtNtCs99Oc0knXXS8_12librefit_lib2db6schema6intake7columnssh_0pENtB5_2idINtNtNtCs1FLWZe5rD62_4core3ops5arith3SubpE3subBd_
FN:28,_RNvXININtNtNtNtCs99Oc0knXXS8_12librefit_lib2db6schema6intake7columnssi_0pENtB5_2idINtNtNtCs1FLWZe5rD62_4core3ops5arith3DivpE3divBd_
FN:28,_RNvXININtNtNtNtCs99Oc0knXXS8_12librefit_lib2db6schema6intake7columnssj_0pENtB5_2idINtNtNtCs1FLWZe5rD62_4core3ops5arith3MulpE3mulBd_
FN:11,_RNvXININtNtNtNtCs99Oc0knXXS8_12librefit_lib2db6schema9body_data7columnss0_0pENtB5_4starINtNtCs7M5B8tusgtg_6diesel13query_builder13QueryFragmentpE8walk_astBd_
FN:11,_RNvXININtNtNtNtCs99Oc0knXXS8_12librefit_lib2db6schema9body_data7columnss15_0pENtB5_6weightINtNtNtCs1FLWZe5rD62_4core3ops5arith3AddpE3addBd_
FN:11,_RNvXININtNtNtNtCs99Oc0knXXS8_12librefit_lib2db6schema9body_data7columnss16_0pENtB5_6weightINtNtNtCs1FLWZe5rD62_4core3ops5arith3SubpE3subBd_
FN:11,_RNvXININtNtNtNtCs99Oc0knXXS8_12librefit_lib2db6schema9body_data7columnss17_0pENtB5_6weightINtNtNtCs1FLWZe5rD62_4core3ops5arith3DivpE3divBd_
FN:11,_RNvXININtNtNtNtCs99Oc0knXXS8_12librefit_lib2db6schema9body_data7columnss18_0pENtB5_6weightINtNtNtCs1FLWZe5rD62_4core3ops5arith3MulpE3mulBd_
FN:11,_RNvXININtNtNtNtCs99Oc0knXXS8_12librefit_lib2db6schema9body_data7columnssA_0pENtB5_3ageINtNtNtCs1FLWZe5rD62_4core3ops5arith3MulpE3mulBd_
FN:11,_RNvXININtNtNtNtCs99Oc0knXXS8_12librefit_lib2db6schema9body_data7columnssO_0pENtB5_6heightINtNtNtCs1FLWZe5rD62_4core3ops5arith3AddpE3addBd_
FN:11,_RNvXININtNtNtNtCs99Oc0knXXS8_12librefit_lib2db6schema9body_data7columnssP_0pENtB5_6heightINtNtNtCs1FLWZe5rD62_4core3ops5arith3SubpE3subBd_
FN:11,_RNvXININtNtNtNtCs99Oc0knXXS8_12librefit_lib2db6schema9body_data7columnssQ_0pENtB5_6heightINtNtNtCs1FLWZe5rD62_4core3ops5arith3DivpE3divBd_
FN:11,_RNvXININtNtNtNtCs99Oc0knXXS8_12librefit_lib2db6schema9body_data7columnssR_0pENtB5_6heightINtNtNtCs1FLWZe5rD62_4core3ops5arith3MulpE3mulBd_
FN:11,_RNvXININtNtNtNtCs99Oc0knXXS8_12librefit_lib2db6schema9body_data7columnssg_0pENtB5_2idINtNtNtCs1FLWZe5rD62_4core3ops5arith3AddpE3addBd_
FN:11,_RNvXININtNtNtNtCs99Oc0knXXS8_12librefit_lib2db6schema9body_data7columnssh_0pENtB5_2idINtNtNtCs1FLWZe5rD62_4core3ops5arith3SubpE3subBd_
FN:11,_RNvXININtNtNtNtCs99Oc0knXXS8_12librefit_lib2db6schema9body_data7columnssi_0pENtB5_2idINtNtNtCs1FLWZe5rD62_4core3ops5arith3DivpE3divBd_
FN:11,_RNvXININtNtNtNtCs99Oc0knXXS8_12librefit_lib2db6schema9body_data7columnssj_0pENtB5_2idINtNtNtCs1FLWZe5rD62_4core3ops5arith3MulpE3mulBd_
FN:11,_RNvXININtNtNtNtCs99Oc0knXXS8_12librefit_lib2db6schema9body_data7columnssx_0pENtB5_3ageINtNtNtCs1FLWZe5rD62_4core3ops5arith3AddpE3addBd_
FN:11,_RNvXININtNtNtNtCs99Oc0knXXS8_12librefit_lib2db6schema9body_data7columnssy_0pENtB5_3ageINtNtNtCs1FLWZe5rD62_4core3ops5arith3SubpE3subBd_
FN:11,_RNvXININtNtNtNtCs99Oc0knXXS8_12librefit_lib2db6schema9body_data7columnssz_0pENtB5_3ageINtNtNtCs1FLWZe5rD62_4core3ops5arith3DivpE3divBd_
FN:18,_RNvMNtNtNtCs99Oc0knXXS8_12librefit_lib2db6schema13food_categoryNtB2_5table4star
FN:18,_RNvXs2_NtNtNtCs99Oc0knXXS8_12librefit_lib2db6schema13food_categoryNtB5_5tableNtNtCs7M5B8tusgtg_6diesel13query_builder7AsQuery8as_query
FN:18,_RNvXs3_NtNtNtCs99Oc0knXXS8_12librefit_lib2db6schema13food_categoryNtB5_5tableNtNtCs7M5B8tusgtg_6diesel12query_source5Table11all_columns
FN:18,_RNvXs3_NtNtNtCs99Oc0knXXS8_12librefit_lib2db6schema13food_categoryNtB5_5tableNtNtCs7M5B8tusgtg_6diesel12query_source5Table11primary_key
FN:18,_RNvXs4_NtNtNtCs99Oc0knXXS8_12librefit_lib2db6schema13food_categoryNtB5_5tableNtNtCs7M5B8tusgtg_6diesel12associations8HasTable5table
FN:18,_RNvXs5_NtNtNtCs99Oc0knXXS8_12librefit_lib2db6schema13food_categoryNtB5_5tableNtNtNtNtCs7M5B8tusgtg_6diesel13query_builder16update_statement6target16IntoUpdateTarget18into_update_target
FN:18,_RNvXs_NtNtNtCs99Oc0knXXS8_12librefit_lib2db6schema13food_categoryNtB4_5tableNtNtCs7M5B8tusgtg_6diesel12query_source11QuerySource11from_clause
FN:18,_RNvXs_NtNtNtCs99Oc0knXXS8_12librefit_lib2db6schema13food_categoryNtB4_5tableNtNtCs7M5B8tusgtg_6diesel12query_source11QuerySource17default_selection
FN:39,_RNvMNtNtNtCs99Oc0knXXS8_12librefit_lib2db6schema13intake_targetNtB2_5table4star
FN:39,_RNvXs2_NtNtNtCs99Oc0knXXS8_12librefit_lib2db6schema13intake_targetNtB5_5tableNtNtCs7M5B8tusgtg_6diesel13query_builder7AsQuery8as_query
FN:39,_RNvXs3_NtNtNtCs99Oc0knXXS8_12librefit_lib2db6schema13intake_targetNtB5_5tableNtNtCs7M5B8tusgtg_6diesel12query_source5Table11all_columns
FN:39,_RNvXs3_NtNtNtCs99Oc0knXXS8_12librefit_lib2db6schema13intake_targetNtB5_5tableNtNtCs7M5B8tusgtg_6diesel12query_source5Table11primary_key
FN:39,_RNvXs4_NtNtNtCs99Oc0knXXS8_12librefit_lib2db6schema13intake_targetNtB5_5tableNtNtCs7M5B8tusgtg_6diesel12associations8HasTable5table
FN:39,_RNvXs5_NtNtNtCs99Oc0knXXS8_12librefit_lib2db6schema13intake_targetNtB5_5tableNtNtNtNtCs7M5B8tusgtg_6diesel13query_builder16update_statement6target16IntoUpdateTarget18into_update_target
FN:39,_RNvXs_NtNtNtCs99Oc0knXXS8_12librefit_lib2db6schema13intake_targetNtB4_5tableNtNtCs7M5B8tusgtg_6diesel12query_source11QuerySource11from_clause
FN:39,_RNvXs_NtNtNtCs99Oc0knXXS8_12librefit_lib2db6schema13intake_targetNtB4_5tableNtNtCs7M5B8tusgtg_6diesel12query_source11QuerySource17default_selection
FN:28,_RNvMNtNtNtCs99Oc0knXXS8_12librefit_lib2db6schema6intakeNtB2_5table4star
FN:28,_RNvXs2_NtNtNtCs99Oc0knXXS8_12librefit_lib2db6schema6intakeNtB5_5tableNtNtCs7M5B8tusgtg_6diesel13query_builder7AsQuery8as_query
FN:28,_RNvXs3_NtNtNtCs99Oc0knXXS8_12librefit_lib2db6schema6intakeNtB5_5tableNtNtCs7M5B8tusgtg_6diesel12query_source5Table11all_columns
FN:28,_RNvXs3_NtNtNtCs99Oc0knXXS8_12librefit_lib2db6schema6intakeNtB5_5tableNtNtCs7M5B8tusgtg_6diesel12query_source5Table11primary_key
FN:28,_RNvXs4_NtNtNtCs99Oc0knXXS8_12librefit_lib2db6schema6intakeNtB5_5tableNtNtCs7M5B8tusgtg_6diesel12associations8HasTable5table
FN:28,_RNvXs5_NtNtNtCs99Oc0knXXS8_12librefit_lib2db6schema6intakeNtB5_5tableNtNtNtNtCs7M5B8tusgtg_6diesel13query_builder16update_statement6target16IntoUpdateTarget18into_update_target
FN:28,_RNvXs_NtNtNtCs99Oc0knXXS8_12librefit_lib2db6schema6intakeNtB4_5tableNtNtCs7M5B8tusgtg_6diesel12query_source11QuerySource11from_clause
FN:28,_RNvXs_NtNtNtCs99Oc0knXXS8_12librefit_lib2db6schema6intakeNtB4_5tableNtNtCs7M5B8tusgtg_6diesel12query_source11QuerySource17default_selection
FN:58,_RNvMNtNtNtCs99Oc0knXXS8_12librefit_lib2db6schema13weight_targetNtB2_5table4star
FN:58,_RNvXs2_NtNtNtCs99Oc0knXXS8_12librefit_lib2db6schema13weight_targetNtB5_5tableNtNtCs7M5B8tusgtg_6diesel13query_builder7AsQuery8as_query
FN:58,_RNvXs3_NtNtNtCs99Oc0knXXS8_12librefit_lib2db6schema13weight_targetNtB5_5tableNtNtCs7M5B8tusgtg_6diesel12query_source5Table11all_columns
FN:58,_RNvXs3_NtNtNtCs99Oc0knXXS8_12librefit_lib2db6schema13weight_targetNtB5_5tableNtNtCs7M5B8tusgtg_6diesel12query_source5Table11primary_key
FN:58,_RNvXs4_NtNtNtCs99Oc0knXXS8_12librefit_lib2db6schema13weight_targetNtB5_5tableNtNtCs7M5B8tusgtg_6diesel12associations8HasTable5table
FN:58,_RNvXs5_NtNtNtCs99Oc0knXXS8_12librefit_lib2db6schema13weight_targetNtB5_5tableNtNtNtNtCs7M5B8tusgtg_6diesel13query_builder16update_statement6target16IntoUpdateTarget18into_update_target
FN:58,_RNvXs_NtNtNtCs99Oc0knXXS8_12librefit_lib2db6schema13weight_targetNtB4_5tableNtNtCs7M5B8tusgtg_6diesel12query_source11QuerySource11from_clause
FN:58,_RNvXs_NtNtNtCs99Oc0knXXS8_12librefit_lib2db6schema13weight_targetNtB4_5tableNtNtCs7M5B8tusgtg_6diesel12query_source11QuerySource17default_selection
FN:66,_RNvMNtNtNtCs99Oc0knXXS8_12librefit_lib2db6schema14weight_trackerNtB2_5table4star
FN:66,_RNvXs2_NtNtNtCs99Oc0knXXS8_12librefit_lib2db6schema14weight_trackerNtB5_5tableNtNtCs7M5B8tusgtg_6diesel13query_builder7AsQuery8as_query
FN:66,_RNvXs3_NtNtNtCs99Oc0knXXS8_12librefit_lib2db6schema14weight_trackerNtB5_5tableNtNtCs7M5B8tusgtg_6diesel12query_source5Table11all_columns
FN:66,_RNvXs3_NtNtNtCs99Oc0knXXS8_12librefit_lib2db6schema14weight_trackerNtB5_5tableNtNtCs7M5B8tusgtg_6diesel12query_source5Table11primary_key
FN:66,_RNvXs4_NtNtNtCs99Oc0knXXS8_12librefit_lib2db6schema14weight_trackerNtB5_5tableNtNtCs7M5B8tusgtg_6diesel12associations8HasTable5table
FN:66,_RNvXs5_NtNtNtCs99Oc0knXXS8_12librefit_lib2db6schema14weight_trackerNtB5_5tableNtNtNtNtCs7M5B8tusgtg_6diesel13query_builder16update_statement6target16IntoUpdateTarget18into_update_target
FN:66,_RNvXs_NtNtNtCs99Oc0knXXS8_12librefit_lib2db6schema14weight_trackerNtB4_5tableNtNtCs7M5B8tusgtg_6diesel12query_source11QuerySource11from_clause
FN:66,_RNvXs_NtNtNtCs99Oc0knXXS8_12librefit_lib2db6schema14weight_trackerNtB4_5tableNtNtCs7M5B8tusgtg_6diesel12query_source11QuerySource17default_selection
FN:11,_RNvMNtNtNtCs99Oc0knXXS8_12librefit_lib2db6schema9body_dataNtB2_5table4star
FN:11,_RNvXs2_NtNtNtCs99Oc0knXXS8_12librefit_lib2db6schema9body_dataNtB5_5tableNtNtCs7M5B8tusgtg_6diesel13query_builder7AsQuery8as_query
FN:11,_RNvXs3_NtNtNtCs99Oc0knXXS8_12librefit_lib2db6schema9body_dataNtB5_5tableNtNtCs7M5B8tusgtg_6diesel12query_source5Table11all_columns
FN:11,_RNvXs3_NtNtNtCs99Oc0knXXS8_12librefit_lib2db6schema9body_dataNtB5_5tableNtNtCs7M5B8tusgtg_6diesel12query_source5Table11primary_key
FN:11,_RNvXs4_NtNtNtCs99Oc0knXXS8_12librefit_lib2db6schema9body_dataNtB5_5tableNtNtCs7M5B8tusgtg_6diesel12associations8HasTable5table
FN:11,_RNvXs5_NtNtNtCs99Oc0knXXS8_12librefit_lib2db6schema9body_dataNtB5_5tableNtNtNtNtCs7M5B8tusgtg_6diesel13query_builder16update_statement6target16IntoUpdateTarget18into_update_target
FN:11,_RNvXs_NtNtNtCs99Oc0knXXS8_12librefit_lib2db6schema9body_dataNtB4_5tableNtNtCs7M5B8tusgtg_6diesel12query_source11QuerySource11from_clause
FN:11,_RNvXs_NtNtNtCs99Oc0knXXS8_12librefit_lib2db6schema9body_dataNtB4_5tableNtNtCs7M5B8tusgtg_6diesel12query_source11QuerySource17default_selection
FN:47,_RNvMNtNtNtCs99Oc0knXXS8_12librefit_lib2db6schema10libre_userNtB2_5table4star
FN:47,_RNvXs2_NtNtNtCs99Oc0knXXS8_12librefit_lib2db6schema10libre_userNtB5_5tableNtNtCs7M5B8tusgtg_6diesel13query_builder7AsQuery8as_query
FN:47,_RNvXs3_NtNtNtCs99Oc0knXXS8_12librefit_lib2db6schema10libre_userNtB5_5tableNtNtCs7M5B8tusgtg_6diesel12query_source5Table11all_columns
FN:47,_RNvXs3_NtNtNtCs99Oc0knXXS8_12librefit_lib2db6schema10libre_userNtB5_5tableNtNtCs7M5B8tusgtg_6diesel12query_source5Table11primary_key
FN:47,_RNvXs4_NtNtNtCs99Oc0knXXS8_12librefit_lib2db6schema10libre_userNtB5_5tableNtNtCs7M5B8tusgtg_6diesel12associations8HasTable5table
FN:47,_RNvXs5_NtNtNtCs99Oc0knXXS8_12librefit_lib2db6schema10libre_userNtB5_5tableNtNtNtNtCs7M5B8tusgtg_6diesel13query_builder16update_statement6target16IntoUpdateTarget18into_update_target
FN:47,_RNvXs_NtNtNtCs99Oc0knXXS8_12librefit_lib2db6schema10libre_userNtB4_5tableNtNtCs7M5B8tusgtg_6diesel12query_source11QuerySource11from_clause
FN:47,_RNvXs_NtNtNtCs99Oc0knXXS8_12librefit_lib2db6schema10libre_userNtB4_5tableNtNtCs7M5B8tusgtg_6diesel12query_source11QuerySource17default_selection
FN:47,_RNvMNtNtNtCskxb0fiIX3sM_12librefit_lib2db6schema10libre_userNtB2_5table4star
FN:18,_RNvMNtNtNtCskxb0fiIX3sM_12librefit_lib2db6schema13food_categoryNtB2_5table4star
FN:39,_RNvMNtNtNtCskxb0fiIX3sM_12librefit_lib2db6schema13intake_targetNtB2_5table4star
FN:58,_RNvMNtNtNtCskxb0fiIX3sM_12librefit_lib2db6schema13weight_targetNtB2_5table4star
FN:66,_RNvMNtNtNtCskxb0fiIX3sM_12librefit_lib2db6schema14weight_trackerNtB2_5table4star
FN:28,_RNvMNtNtNtCskxb0fiIX3sM_12librefit_lib2db6schema6intakeNtB2_5table4star
FN:11,_RNvMNtNtNtCskxb0fiIX3sM_12librefit_lib2db6schema9body_dataNtB2_5table4star
FN:47,_RNvXININtNtNtCskxb0fiIX3sM_12librefit_lib2db6schema10libre_users0_0pENtB5_5tableINtNtCs7M5B8tusgtg_6diesel13query_builder13QueryFragmentpE8walk_astBb_
FN:47,_RNvXININtNtNtCskxb0fiIX3sM_12librefit_lib2db6schema10libre_usersa_0ppENtB5_5tableINtNtNtNtCs7M5B8tusgtg_6diesel12query_source8aliasing18field_alias_mapper48FieldAliasMapperAssociatedTypesDisjointnessTrickB16_ppE3mapBb_
FN:47,_RNvXININtNtNtCskxb0fiIX3sM_12librefit_lib2db6schema10libre_usersc_0pppENtB5_5tableINtNtNtCs7M5B8tusgtg_6diesel12query_source5joins6JoinToINtB1l_4JoinpppEE11join_targetBb_
FN:47,_RNvXININtNtNtCskxb0fiIX3sM_12librefit_lib2db6schema10libre_usersd_0ppENtB5_5tableINtNtNtCs7M5B8tusgtg_6diesel12query_source5joins6JoinToINtB1k_6JoinOnppEE11join_targetBb_
FN:47,_RNvXININtNtNtCskxb0fiIX3sM_12librefit_lib2db6schema10libre_userse_0ppppppppENtB5_5tableINtNtNtCs7M5B8tusgtg_6diesel12query_source5joins6JoinToINtNtNtB1u_13query_builder16select_statement15SelectStatementINtNtB2l_11from_clause10FromClausepEpppppppEE11join_targetBb_
FN:47,_RNvXININtNtNtCskxb0fiIX3sM_12librefit_lib2db6schema10libre_usersf_0pppENtB5_5tableINtNtNtCs7M5B8tusgtg_6diesel12query_source5joins6JoinToINtNtNtNtB1p_13query_builder16select_statement5boxed20BoxedSelectStatementINtNtB2i_11from_clause10FromClausepEppEE11join_targetBb_
FN:47,_RNvXININtNtNtCskxb0fiIX3sM_12librefit_lib2db6schema10libre_usersg_0pENtB5_5tableINtNtNtCs7M5B8tusgtg_6diesel12query_source5joins6JoinToINtNtNtB1l_8aliasing5alias5AliaspEE11join_targetBb_
FN:47,_RNvXININtNtNtCskxb0fiIX3sM_12librefit_lib2db6schema10libre_usersh_0pENtB5_5tableINtNtCs7M5B8tusgtg_6diesel10insertable10InsertablepE6valuesBb_
FN:47,_RNvXININtNtNtCskxb0fiIX3sM_12librefit_lib2db6schema10libre_usersi_0pERNtB5_5tableINtNtCs7M5B8tusgtg_6diesel10insertable10InsertablepE6valuesBb_
FN:18,_RNvXININtNtNtCskxb0fiIX3sM_12librefit_lib2db6schema13food_categorys0_0pENtB5_5tableINtNtCs7M5B8tusgtg_6diesel13query_builder13QueryFragmentpE8walk_astBb_
FN:18,_RNvXININtNtNtCskxb0fiIX3sM_12librefit_lib2db6schema13food_categorysa_0ppENtB5_5tableINtNtNtNtCs7M5B8tusgtg_6diesel12query_source8aliasing18field_alias_mapper48FieldAliasMapperAssociatedTypesDisjointnessTrickB19_ppE3mapBb_
FN:18,_RNvXININtNtNtCskxb0fiIX3sM_12librefit_lib2db6schema13food_categorysc_0pppENtB5_5tableINtNtNtCs7M5B8tusgtg_6diesel12query_source5joins6JoinToINtB1o_4JoinpppEE11join_targetBb_
FN:18,_RNvXININtNtNtCskxb0fiIX3sM_12librefit_lib2db6schema13food_categorysd_0ppENtB5_5tableINtNtNtCs7M5B8tusgtg_6diesel12query_source5joins6JoinToINtB1n_6JoinOnppEE11join_targetBb_
FN:18,_RNvXININtNtNtCskxb0fiIX3sM_12librefit_lib2db6schema13food_categoryse_0ppppppppENtB5_5tableINtNtNtCs7M5B8tusgtg_6diesel12query_source5joins6JoinToINtNtNtB1x_13query_builder16select_statement15SelectStatementINtNtB2o_11from_clause10FromClausepEpppppppEE11join_targetBb_
FN:18,_RNvXININtNtNtCskxb0fiIX3sM_12librefit_lib2db6schema13food_categorysf_0pppENtB5_5tableINtNtNtCs7M5B8tusgtg_6diesel12query_source5joins6JoinToINtNtNtNtB1s_13query_builder16select_statement5boxed20BoxedSelectStatementINtNtB2l_11from_clause10FromClausepEppEE11join_targetBb_
FN:18,_RNvXININtNtNtCskxb0fiIX3sM_12librefit_lib2db6schema13food_categorysg_0pENtB5_5tableINtNtNtCs7M5B8tusgtg_6diesel12query_source5joins6JoinToINtNtNtB1o_8aliasing5alias5AliaspEE11join_targetBb_
FN:18,_RNvXININtNtNtCskxb0fiIX3sM_12librefit_lib2db6schema13food_categorysh_0pENtB5_5tableINtNtCs7M5B8tusgtg_6diesel10insertable10InsertablepE6valuesBb_
FN:18,_RNvXININtNtNtCskxb0fiIX3sM_12librefit_lib2db6schema13food_categorysi_0pERNtB5_5tableINtNtCs7M5B8tusgtg_6diesel10insertable10InsertablepE6valuesBb_
FN:39,_RNvXININtNtNtCskxb0fiIX3sM_12librefit_lib2db6schema13intake_targets0_0pENtB5_5tableINtNtCs7M5B8tusgtg_6diesel13query_builder13QueryFragmentpE8walk_astBb_
FN:39,_RNvXININtNtNtCskxb0fiIX3sM_12librefit_lib2db6schema13intake_targetsa_0ppENtB5_5tableINtNtNtNtCs7M5B8tusgtg_6diesel12query_source8aliasing18field_alias_mapper48FieldAliasMapperAssociatedTypesDisjointnessTrickB19_ppE3mapBb_
FN:39,_RNvXININtNtNtCskxb0fiIX3sM_12librefit_lib2db6schema13intake_targetsc_0pppENtB5_5tableINtNtNtCs7M5B8tusgtg_6diesel12query_source5joins6JoinToINtB1o_4JoinpppEE11join_targetBb_
FN:39,_RNvXININtNtNtCskxb0fiIX3sM_12librefit_lib2db6schema13intake_targetsd_0ppENtB5_5tableINtNtNtCs7M5B8tusgtg_6diesel12query_source5joins6JoinToINtB1n_6JoinOnppEE11join_targetBb_
FN:39,_RNvXININtNtNtCskxb0fiIX3sM_12librefit_lib2db6schema13intake_targetse_0ppppppppENtB5_5tableINtNtNtCs7M5B8tusgtg_6diesel12query_source5joins6JoinToINtNtNtB1x_13query_builder16select_statement15SelectStatementINtNtB2o_11from_clause10FromClausepEpppppppEE11join_targetBb_
FN:39,_RNvXININtNtNtCskxb0fiIX3sM_12librefit_lib2db6schema13intake_targetsf_0pppENtB5_5tableINtNtNtCs7M5B8tusgtg_6diesel12query_source5joins6JoinToINtNtNtNtB1s_13query_builder16select_statement5boxed20BoxedSelectStatementINtNtB2l_11from_clause10FromClausepEppEE11join_targetBb_
FN:39,_RNvXININtNtNtCskxb0fiIX3sM_12librefit_lib2db6schema13intake_targetsg_0pENtB5_5tableINtNtNtCs7M5B8tusgtg_6diesel12query_source5joins6JoinToINtNtNtB1o_8aliasing5alias5AliaspEE11join_targetBb_
FN:39,_RNvXININtNtNtCskxb0fiIX3sM_12librefit_lib2db6schema13intake_targetsh_0pENtB5_5tableINtNtCs7M5B8tusgtg_6diesel10insertable10InsertablepE6valuesBb_
FN:39,_RNvXININtNtNtCskxb0fiIX3sM_12librefit_lib2db6schema13intake_targetsi_0pERNtB5_5tableINtNtCs7M5B8tusgtg_6diesel10insertable10InsertablepE6valuesBb_
FN:58,_RNvXININtNtNtCskxb0fiIX3sM_12librefit_lib2db6schema13weight_targets0_0pENtB5_5tableINtNtCs7M5B8tusgtg_6diesel13query_builder13QueryFragmentpE8walk_astBb_
FN:58,_RNvXININtNtNtCskxb0fiIX3sM_12librefit_lib2db6schema13weight_targetsa_0ppENtB5_5tableINtNtNtNtCs7M5B8tusgtg_6diesel12query_source8aliasing18field_alias_mapper48FieldAliasMapperAssociatedTypesDisjointnessTrickB19_ppE3mapBb_
FN:58,_RNvXININtNtNtCskxb0fiIX3sM_12librefit_lib2db6schema13weight_targetsc_0pppENtB5_5tableINtNtNtCs7M5B8tusgtg_6diesel12query_source5joins6JoinToINtB1o_4JoinpppEE11join_targetBb_
FN:58,_RNvXININtNtNtCskxb0fiIX3sM_12librefit_lib2db6schema13weight_targetsd_0ppENtB5_5tableINtNtNtCs7M5B8tusgtg_6diesel12query_source5joins6JoinToINtB1n_6JoinOnppEE11join_targetBb_
FN:58,_RNvXININtNtNtCskxb0fiIX3sM_12librefit_lib2db6schema13weight_targetse_0ppppppppENtB5_5tableINtNtNtCs7M5B8tusgtg_6diesel12query_source5joins6JoinToINtNtNtB1x_13query_builder16select_statement15SelectStatementINtNtB2o_11from_clause10FromClausepEpppppppEE11join_targetBb_
FN:58,_RNvXININtNtNtCskxb0fiIX3sM_12librefit_lib2db6schema13weight_targetsf_0pppENtB5_5tableINtNtNtCs7M5B8tusgtg_6diesel12query_source5joins6JoinToINtNtNtNtB1s_13query_builder16select_statement5boxed20BoxedSelectStatementINtNtB2l_11from_clause10FromClausepEppEE11join_targetBb_
FN:58,_RNvXININtNtNtCskxb0fiIX3sM_12librefit_lib2db6schema13weight_targetsg_0pENtB5_5tableINtNtNtCs7M5B8tusgtg_6diesel12query_source5joins6JoinToINtNtNtB1o_8aliasing5alias5AliaspEE11join_targetBb_
FN:58,_RNvXININtNtNtCskxb0fiIX3sM_12librefit_lib2db6schema13weight_targetsh_0pENtB5_5tableINtNtCs7M5B8tusgtg_6diesel10insertable10InsertablepE6valuesBb_
FN:58,_RNvXININtNtNtCskxb0fiIX3sM_12librefit_lib2db6schema13weight_targetsi_0pERNtB5_5tableINtNtCs7M5B8tusgtg_6diesel10insertable10InsertablepE6valuesBb_
FN:66,_RNvXININtNtNtCskxb0fiIX3sM_12librefit_lib2db6schema14weight_trackers0_0pENtB5_5tableINtNtCs7M5B8tusgtg_6diesel13query_builder13QueryFragmentpE8walk_astBb_
FN:66,_RNvXININtNtNtCskxb0fiIX3sM_12librefit_lib2db6schema14weight_trackersa_0ppENtB5_5tableINtNtNtNtCs7M5B8tusgtg_6diesel12query_source8aliasing18field_alias_mapper48FieldAliasMapperAssociatedTypesDisjointnessTrickB1a_ppE3mapBb_
FN:66,_RNvXININtNtNtCskxb0fiIX3sM_12librefit_lib2db6schema14weight_trackersc_0pppENtB5_5tableINtNtNtCs7M5B8tusgtg_6diesel12query_source5joins6JoinToINtB1p_4JoinpppEE11join_targetBb_
FN:66,_RNvXININtNtNtCskxb0fiIX3sM_12librefit_lib2db6schema14weight_trackersd_0ppENtB5_5tableINtNtNtCs7M5B8tusgtg_6diesel12query_source5joins6JoinToINtB1o_6JoinOnppEE11join_targetBb_
FN:66,_RNvXININtNtNtCskxb0fiIX3sM_12librefit_lib2db6schema14weight_trackerse_0ppppppppENtB5_5tableINtNtNtCs7M5B8tusgtg_6diesel12query_source5joins6JoinToINtNtNtB1y_13query_builder16select_statement15SelectStatementINtNtB2p_11from_clause10FromClausepEpppppppEE11join_targetBb_
FN:66,_RNvXININtNtNtCskxb0fiIX3sM_12librefit_lib2db6schema14weight_trackersf_0pppENtB5_5tableINtNtNtCs7M5B8tusgtg_6diesel12query_source5joins6JoinToINtNtNtNtB1t_13query_builder16select_statement5boxed20BoxedSelectStatementINtNtB2m_11from_clause10FromClausepEppEE11join_targetBb_
FN:66,_RNvXININtNtNtCskxb0fiIX3sM_12librefit_lib2db6schema14weight_trackersg_0pENtB5_5tableINtNtNtCs7M5B8tusgtg_6diesel12query_source5joins6JoinToINtNtNtB1p_8aliasing5alias5AliaspEE11join_targetBb_
FN:66,_RNvXININtNtNtCskxb0fiIX3sM_12librefit_lib2db6schema14weight_trackersh_0pENtB5_5tableINtNtCs7M5B8tusgtg_6diesel10insertable10InsertablepE6valuesBb_
FN:66,_RNvXININtNtNtCskxb0fiIX3sM_12librefit_lib2db6schema14weight_trackersi_0pERNtB5_5tableINtNtCs7M5B8tusgtg_6diesel10insertable10InsertablepE6valuesBb_
FN:28,_RNvXININtNtNtCskxb0fiIX3sM_12librefit_lib2db6schema6intakes0_0pENtB5_5tableINtNtCs7M5B8tusgtg_6diesel13query_builder13QueryFragmentpE8walk_astBb_
FN:28,_RNvXININtNtNtCskxb0fiIX3sM_12librefit_lib2db6schema6intakesa_0ppENtB5_5tableINtNtNtNtCs7M5B8tusgtg_6diesel12query_source8aliasing18field_alias_mapper48FieldAliasMapperAssociatedTypesDisjointnessTrickB11_ppE3mapBb_
FN:28,_RNvXININtNtNtCskxb0fiIX3sM_12librefit_lib2db6schema6intakesc_0pppENtB5_5tableINtNtNtCs7M5B8tusgtg_6diesel12query_source5joins6JoinToINtB1g_4JoinpppEE11join_targetBb_
FN:28,_RNvXININtNtNtCskxb0fiIX3sM_12librefit_lib2db6schema6intakesd_0ppENtB5_5tableINtNtNtCs7M5B8tusgtg_6diesel12query_source5joins6JoinToINtB1f_6JoinOnppEE11join_targetBb_
FN:28,_RNvXININtNtNtCskxb0fiIX3sM_12librefit_lib2db6schema6intakese_0ppppppppENtB5_5tableINtNtNtCs7M5B8tusgtg_6diesel12query_source5joins6JoinToINtNtNtB1p_13query_builder16select_statement15SelectStatementINtNtB2g_11from_clause10FromClausepEpppppppEE11join_targetBb_
FN:28,_RNvXININtNtNtCskxb0fiIX3sM_12librefit_lib2db6schema6intakesf_0pppENtB5_5tableINtNtNtCs7M5B8tusgtg_6diesel12query_source5joins6JoinToINtNtNtNtB1k_13query_builder16select_statement5boxed20BoxedSelectStatementINtNtB2d_11from_clause10FromClausepEppEE11join_targetBb_
FN:28,_RNvXININtNtNtCskxb0fiIX3sM_12librefit_lib2db6schema6intakesg_0pENtB5_5tableINtNtNtCs7M5B8tusgtg_6diesel12query_source5joins6JoinToINtNtNtB1g_8aliasing5alias5AliaspEE11join_targetBb_
FN:28,_RNvXININtNtNtCskxb0fiIX3sM_12librefit_lib2db6schema6intakesh_0pENtB5_5tableINtNtCs7M5B8tusgtg_6diesel10insertable10InsertablepE6valuesBb_
FN:28,_RNvXININtNtNtCskxb0fiIX3sM_12librefit_lib2db6schema6intakesi_0pERNtB5_5tableINtNtCs7M5B8tusgtg_6diesel10insertable10InsertablepE6valuesBb_
FN:11,_RNvXININtNtNtCskxb0fiIX3sM_12librefit_lib2db6schema9body_datas0_0pENtB5_5tableINtNtCs7M5B8tusgtg_6diesel13query_builder13QueryFragmentpE8walk_astBb_
FN:11,_RNvXININtNtNtCskxb0fiIX3sM_12librefit_lib2db6schema9body_datasa_0ppENtB5_5tableINtNtNtNtCs7M5B8tusgtg_6diesel12query_source8aliasing18field_alias_mapper48FieldAliasMapperAssociatedTypesDisjointnessTrickB14_ppE3mapBb_
FN:11,_RNvXININtNtNtCskxb0fiIX3sM_12librefit_lib2db6schema9body_datasc_0pppENtB5_5tableINtNtNtCs7M5B8tusgtg_6diesel12query_source5joins6JoinToINtB1j_4JoinpppEE11join_targetBb_
FN:11,_RNvXININtNtNtCskxb0fiIX3sM_12librefit_lib2db6schema9body_datasd_0ppENtB5_5tableINtNtNtCs7M5B8tusgtg_6diesel12query_source5joins6JoinToINtB1i_6JoinOnppEE11join_targetBb_
FN:11,_RNvXININtNtNtCskxb0fiIX3sM_12librefit_lib2db6schema9body_datase_0ppppppppENtB5_5tableINtNtNtCs7M5B8tusgtg_6diesel12query_source5joins6JoinToINtNtNtB1s_13query_builder16select_statement15SelectStatementINtNtB2j_11from_clause10FromClausepEpppppppEE11join_targetBb_
FN:11,_RNvXININtNtNtCskxb0fiIX3sM_12librefit_lib2db6schema9body_datasf_0pppENtB5_5tableINtNtNtCs7M5B8tusgtg_6diesel12query_source5joins6JoinToINtNtNtNtB1n_13query_builder16select_statement5boxed20BoxedSelectStatementINtNtB2g_11from_clause10FromClausepEppEE11join_targetBb_
FN:11,_RNvXININtNtNtCskxb0fiIX3sM_12librefit_lib2db6schema9body_datasg_0pENtB5_5tableINtNtNtCs7M5B8tusgtg_6diesel12query_source5joins6JoinToINtNtNtB1j_8aliasing5alias5AliaspEE11join_targetBb_
FN:11,_RNvXININtNtNtCskxb0fiIX3sM_12librefit_lib2db6schema9body_datash_0pENtB5_5tableINtNtCs7M5B8tusgtg_6diesel10insertable10InsertablepE6valuesBb_
FN:11,_RNvXININtNtNtCskxb0fiIX3sM_12librefit_lib2db6schema9body_datasi_0pERNtB5_5tableINtNtCs7M5B8tusgtg_6diesel10insertable10InsertablepE6valuesBb_
FN:47,_RNvXININtNtNtNtCskxb0fiIX3sM_12librefit_lib2db6schema10libre_user7columnss0_0pENtB5_4starINtNtCs7M5B8tusgtg_6diesel13query_builder13QueryFragmentpE8walk_astBd_
FN:47,_RNvXININtNtNtNtCskxb0fiIX3sM_12librefit_lib2db6schema10libre_user7columnssg_0pENtB5_2idINtNtNtCs1FLWZe5rD62_4core3ops5arith3AddpE3addBd_
FN:47,_RNvXININtNtNtNtCskxb0fiIX3sM_12librefit_lib2db6schema10libre_user7columnssh_0pENtB5_2idINtNtNtCs1FLWZe5rD62_4core3ops5arith3SubpE3subBd_
FN:47,_RNvXININtNtNtNtCskxb0fiIX3sM_12librefit_lib2db6schema10libre_user7columnssi_0pENtB5_2idINtNtNtCs1FLWZe5rD62_4core3ops5arith3DivpE3divBd_
FN:47,_RNvXININtNtNtNtCskxb0fiIX3sM_12librefit_lib2db6schema10libre_user7columnssj_0pENtB5_2idINtNtNtCs1FLWZe5rD62_4core3ops5arith3MulpE3mulBd_
FN:18,_RNvXININtNtNtNtCskxb0fiIX3sM_12librefit_lib2db6schema13food_category7columnss0_0pENtB5_4starINtNtCs7M5B8tusgtg_6diesel13query_builder13QueryFragmentpE8walk_astBd_
FN:39,_RNvXININtNtNtNtCskxb0fiIX3sM_12librefit_lib2db6schema13intake_target7columnss0_0pENtB5_4starINtNtCs7M5B8tusgtg_6diesel13query_builder13QueryFragmentpE8walk_astBd_
FN:39,_RNvXININtNtNtNtCskxb0fiIX3sM_12librefit_lib2db6schema13intake_target7columnss10_0pENtB5_16maximum_caloriesINtNtNtCs1FLWZe5rD62_4core3ops5arith3MulpE3mulBd_
FN:39,_RNvXININtNtNtNtCskxb0fiIX3sM_12librefit_lib2db6schema13intake_target7columnss1r_0pENtB5_15target_caloriesINtNtNtCs1FLWZe5rD62_4core3ops5arith3AddpE3addBd_
FN:39,_RNvXININtNtNtNtCskxb0fiIX3sM_12librefit_lib2db6schema13intake_target7columnss1s_0pENtB5_15target_caloriesINtNtNtCs1FLWZe5rD62_4core3ops5arith3SubpE3subBd_
FN:39,_RNvXININtNtNtNtCskxb0fiIX3sM_12librefit_lib2db6schema13intake_target7columnss1t_0pENtB5_15target_caloriesINtNtNtCs1FLWZe5rD62_4core3ops5arith3DivpE3divBd_
FN:39,_RNvXININtNtNtNtCskxb0fiIX3sM_12librefit_lib2db6schema13intake_target7columnss1u_0pENtB5_15target_caloriesINtNtNtCs1FLWZe5rD62_4core3ops5arith3MulpE3mulBd_
FN:39,_RNvXININtNtNtNtCskxb0fiIX3sM_12librefit_lib2db6schema13intake_target7columnssX_0pENtB5_16maximum_caloriesINtNtNtCs1FLWZe5rD62_4core3ops5arith3AddpE3addBd_
FN:39,_RNvXININtNtNtNtCskxb0fiIX3sM_12librefit_lib2db6schema13intake_target7columnssY_0pENtB5_16maximum_caloriesINtNtNtCs1FLWZe5rD62_4core3ops5arith3SubpE3subBd_
FN:39,_RNvXININtNtNtNtCskxb0fiIX3sM_12librefit_lib2db6schema13intake_target7columnssZ_0pENtB5_16maximum_caloriesINtNtNtCs1FLWZe5rD62_4core3ops5arith3DivpE3divBd_
FN:39,_RNvXININtNtNtNtCskxb0fiIX3sM_12librefit_lib2db6schema13intake_target7columnssg_0pENtB5_2idINtNtNtCs1FLWZe5rD62_4core3ops5arith3AddpE3addBd_
FN:39,_RNvXININtNtNtNtCskxb0fiIX3sM_12librefit_lib2db6schema13intake_target7columnssh_0pENtB5_2idINtNtNtCs1FLWZe5rD62_4core3ops5arith3SubpE3subBd_
FN:39,_RNvXININtNtNtNtCskxb0fiIX3sM_12librefit_lib2db6schema13intake_target7columnssi_0pENtB5_2idINtNtNtCs1FLWZe5rD62_4core3ops5arith3DivpE3divBd_
FN:39,_RNvXININtNtNtNtCskxb0fiIX3sM_12librefit_lib2db6schema13intake_target7columnssj_0pENtB5_2idINtNtNtCs1FLWZe5rD62_4core3ops5arith3MulpE3mulBd_
FN:58,_RNvXININtNtNtNtCskxb0fiIX3sM_12librefit_lib2db6schema13weight_target7columnss0_0pENtB5_4starINtNtCs7M5B8tusgtg_6diesel13query_builder13QueryFragmentpE8walk_astBd_
FN:58,_RNvXININtNtNtNtCskxb0fiIX3sM_12librefit_lib2db6schema13weight_target7columnss10_0pENtB5_14initial_weightINtNtNtCs1FLWZe5rD62_4core3ops5arith3MulpE3mulBd_
FN:58,_RNvXININtNtNtNtCskxb0fiIX3sM_12librefit_lib2db6schema13weight_target7columnss1r_0pENtB5_13target_weightINtNtNtCs1FLWZe5rD62_4core3ops5arith3AddpE3addBd_
FN:58,_RNvXININtNtNtNtCskxb0fiIX3sM_12librefit_lib2db6schema13weight_target7columnss1s_0pENtB5_13target_weightINtNtNtCs1FLWZe5rD62_4core3ops5arith3SubpE3subBd_
FN:58,_RNvXININtNtNtNtCskxb0fiIX3sM_12librefit_lib2db6schema13weight_target7columnss1t_0pENtB5_13target_weightINtNtNtCs1FLWZe5rD62_4core3ops5arith3DivpE3divBd_
FN:58,_RNvXININtNtNtNtCskxb0fiIX3sM_12librefit_lib2db6schema13weight_target7columnss1u_0pENtB5_13target_weightINtNtNtCs1FLWZe5rD62_4core3ops5arith3MulpE3mulBd_
FN:58,_RNvXININtNtNtNtCskxb0fiIX3sM_12librefit_lib2db6schema13weight_target7columnssX_0pENtB5_14initial_weightINtNtNtCs1FLWZe5rD62_4core3ops5arith3AddpE3addBd_
FN:58,_RNvXININtNtNtNtCskxb0fiIX3sM_12librefit_lib2db6schema13weight_target7columnssY_0pENtB5_14initial_weightINtNtNtCs1FLWZe5rD62_4core3ops5arith3SubpE3subBd_
FN:58,_RNvXININtNtNtNtCskxb0fiIX3sM_12librefit_lib2db6schema13weight_target7columnssZ_0pENtB5_14initial_weightINtNtNtCs1FLWZe5rD62_4core3ops5arith3DivpE3divBd_
FN:58,_RNvXININtNtNtNtCskxb0fiIX3sM_12librefit_lib2db6schema13weight_target7columnssg_0pENtB5_2idINtNtNtCs1FLWZe5rD62_4core3ops5arith3AddpE3addBd_
FN:58,_RNvXININtNtNtNtCskxb0fiIX3sM_12librefit_lib2db6schema13weight_target7columnssh_0pENtB5_2idINtNtNtCs1FLWZe5rD62_4core3ops5arith3SubpE3subBd_
FN:58,_RNvXININtNtNtNtCskxb0fiIX3sM_12librefit_lib2db6schema13weight_target7columnssi_0pENtB5_2idINtNtNtCs1FLWZe5rD62_4core3ops5arith3DivpE3divBd_
FN:58,_RNvXININtNtNtNtCskxb0fiIX3sM_12librefit_lib2db6schema13weight_target7columnssj_0pENtB5_2idINtNtNtCs1FLWZe5rD62_4core3ops5arith3MulpE3mulBd_
FN:66,_RNvXININtNtNtNtCskxb0fiIX3sM_12librefit_lib2db6schema14weight_tracker7columnss0_0pENtB5_4starINtNtCs7M5B8tusgtg_6diesel13query_builder13QueryFragmentpE8walk_astBd_
FN:66,_RNvXININtNtNtNtCskxb0fiIX3sM_12librefit_lib2db6schema14weight_tracker7columnssK_0pENtB5_6amountINtNtNtCs1FLWZe5rD62_4core3ops5arith3AddpE3addBd_
FN:66,_RNvXININtNtNtNtCskxb0fiIX3sM_12librefit_lib2db6schema14weight_tracker7columnssL_0pENtB5_6amountINtNtNtCs1FLWZe5rD62_4core3ops5arith3SubpE3subBd_
FN:66,_RNvXININtNtNtNtCskxb0fiIX3sM_12librefit_lib2db6schema14weight_tracker7columnssM_0pENtB5_6amountINtNtNtCs1FLWZe5rD62_4core3ops5arith3DivpE3divBd_
FN:66,_RNvXININtNtNtNtCskxb0fiIX3sM_12librefit_lib2db6schema14weight_tracker7columnssN_0pENtB5_6amountINtNtNtCs1FLWZe5rD62_4core3ops5arith3MulpE3mulBd_
FN:66,_RNvXININtNtNtNtCskxb0fiIX3sM_12librefit_lib2db6schema14weight_tracker7columnssg_0pENtB5_2idINtNtNtCs1FLWZe5rD62_4core3ops5arith3AddpE3addBd_
FN:66,_RNvXININtNtNtNtCskxb0fiIX3sM_12librefit_lib2db6schema14weight_tracker7columnssh_0pENtB5_2idINtNtNtCs1FLWZe5rD62_4core3ops5arith3SubpE3subBd_
FN:66,_RNvXININtNtNtNtCskxb0fiIX3sM_12librefit_lib2db6schema14weight_tracker7columnssi_0pENtB5_2idINtNtNtCs1FLWZe5rD62_4core3ops5arith3DivpE3divBd_
FN:66,_RNvXININtNtNtNtCskxb0fiIX3sM_12librefit_lib2db6schema14weight_tracker7columnssj_0pENtB5_2idINtNtNtCs1FLWZe5rD62_4core3ops5arith3MulpE3mulBd_
FN:28,_RNvXININtNtNtNtCskxb0fiIX3sM_12librefit_lib2db6schema6intake7columnss0_0pENtB5_4starINtNtCs7M5B8tusgtg_6diesel13query_builder13QueryFragmentpE8walk_astBd_
FN:28,_RNvXININtNtNtNtCskxb0fiIX3sM_12librefit_lib2db6schema6intake7columnssK_0pENtB5_6amountINtNtNtCs1FLWZe5rD62_4core3ops5arith3AddpE3addBd_
FN:28,_RNvXININtNtNtNtCskxb0fiIX3sM_12librefit_lib2db6schema6intake7columnssL_0pENtB5_6amountINtNtNtCs1FLWZe5rD62_4core3ops5arith3SubpE3subBd_
FN:28,_RNvXININtNtNtNtCskxb0fiIX3sM_12librefit_lib2db6schema6intake7columnssM_0pENtB5_6amountINtNtNtCs1FLWZe5rD62_4core3ops5arith3DivpE3divBd_
FN:28,_RNvXININtNtNtNtCskxb0fiIX3sM_12librefit_lib2db6schema6intake7columnssN_0pENtB5_6amountINtNtNtCs1FLWZe5rD62_4core3ops5arith3MulpE3mulBd_
FN:28,_RNvXININtNtNtNtCskxb0fiIX3sM_12librefit_lib2db6schema6intake7columnssg_0pENtB5_2idINtNtNtCs1FLWZe5rD62_4core3ops5arith3AddpE3addBd_
FN:28,_RNvXININtNtNtNtCskxb0fiIX3sM_12librefit_lib2db6schema6intake7columnssh_0pENtB5_2idINtNtNtCs1FLWZe5rD62_4core3ops5arith3SubpE3subBd_
FN:28,_RNvXININtNtNtNtCskxb0fiIX3sM_12librefit_lib2db6schema6intake7columnssi_0pENtB5_2idINtNtNtCs1FLWZe5rD62_4core3ops5arith3DivpE3divBd_
FN:28,_RNvXININtNtNtNtCskxb0fiIX3sM_12librefit_lib2db6schema6intake7columnssj_0pENtB5_2idINtNtNtCs1FLWZe5rD62_4core3ops5arith3MulpE3mulBd_
FN:11,_RNvXININtNtNtNtCskxb0fiIX3sM_12librefit_lib2db6schema9body_data7columnss0_0pENtB5_4starINtNtCs7M5B8tusgtg_6diesel13query_builder13QueryFragmentpE8walk_astBd_
FN:11,_RNvXININtNtNtNtCskxb0fiIX3sM_12librefit_lib2db6schema9body_data7columnss15_0pENtB5_6weightINtNtNtCs1FLWZe5rD62_4core3ops5arith3AddpE3addBd_
FN:11,_RNvXININtNtNtNtCskxb0fiIX3sM_12librefit_lib2db6schema9body_data7columnss16_0pENtB5_6weightINtNtNtCs1FLWZe5rD62_4core3ops5arith3SubpE3subBd_
FN:11,_RNvXININtNtNtNtCskxb0fiIX3sM_12librefit_lib2db6schema9body_data7columnss17_0pENtB5_6weightINtNtNtCs1FLWZe5rD62_4core3ops5arith3DivpE3divBd_
FN:11,_RNvXININtNtNtNtCskxb0fiIX3sM_12librefit_lib2db6schema9body_data7columnss18_0pENtB5_6weightINtNtNtCs1FLWZe5rD62_4core3ops5arith3MulpE3mulBd_
FN:11,_RNvXININtNtNtNtCskxb0fiIX3sM_12librefit_lib2db6schema9body_data7columnssA_0pENtB5_3ageINtNtNtCs1FLWZe5rD62_4core3ops5arith3MulpE3mulBd_
FN:11,_RNvXININtNtNtNtCskxb0fiIX3sM_12librefit_lib2db6schema9body_data7columnssO_0pENtB5_6heightINtNtNtCs1FLWZe5rD62_4core3ops5arith3AddpE3addBd_
FN:11,_RNvXININtNtNtNtCskxb0fiIX3sM_12librefit_lib2db6schema9body_data7columnssP_0pENtB5_6heightINtNtNtCs1FLWZe5rD62_4core3ops5arith3SubpE3subBd_
FN:11,_RNvXININtNtNtNtCskxb0fiIX3sM_12librefit_lib2db6schema9body_data7columnssQ_0pENtB5_6heightINtNtNtCs1FLWZe5rD62_4core3ops5arith3DivpE3divBd_
FN:11,_RNvXININtNtNtNtCskxb0fiIX3sM_12librefit_lib2db6schema9body_data7columnssR_0pENtB5_6heightINtNtNtCs1FLWZe5rD62_4core3ops5arith3MulpE3mulBd_
FN:11,_RNvXININtNtNtNtCskxb0fiIX3sM_12librefit_lib2db6schema9body_data7columnssg_0pENtB5_2idINtNtNtCs1FLWZe5rD62_4core3ops5arith3AddpE3addBd_
FN:11,_RNvXININtNtNtNtCskxb0fiIX3sM_12librefit_lib2db6schema9body_data7columnssh_0pENtB5_2idINtNtNtCs1FLWZe5rD62_4core3ops5arith3SubpE3subBd_
FN:11,_RNvXININtNtNtNtCskxb0fiIX3sM_12librefit_lib2db6schema9body_data7columnssi_0pENtB5_2idINtNtNtCs1FLWZe5rD62_4core3ops5arith3DivpE3divBd_
FN:11,_RNvXININtNtNtNtCskxb0fiIX3sM_12librefit_lib2db6schema9body_data7columnssj_0pENtB5_2idINtNtNtCs1FLWZe5rD62_4core3ops5arith3MulpE3mulBd_
FN:11,_RNvXININtNtNtNtCskxb0fiIX3sM_12librefit_lib2db6schema9body_data7columnssx_0pENtB5_3ageINtNtNtCs1FLWZe5rD62_4core3ops5arith3AddpE3addBd_
FN:11,_RNvXININtNtNtNtCskxb0fiIX3sM_12librefit_lib2db6schema9body_data7columnssy_0pENtB5_3ageINtNtNtCs1FLWZe5rD62_4core3ops5arith3SubpE3subBd_
FN:11,_RNvXININtNtNtNtCskxb0fiIX3sM_12librefit_lib2db6schema9body_data7columnssz_0pENtB5_3ageINtNtNtCs1FLWZe5rD62_4core3ops5arith3DivpE3divBd_
FN:47,_RNvXs2_NtNtNtCskxb0fiIX3sM_12librefit_lib2db6schema10libre_userNtB5_5tableNtNtCs7M5B8tusgtg_6diesel13query_builder7AsQuery8as_query
FN:18,_RNvXs2_NtNtNtCskxb0fiIX3sM_12librefit_lib2db6schema13food_categoryNtB5_5tableNtNtCs7M5B8tusgtg_6diesel13query_builder7AsQuery8as_query
FN:39,_RNvXs2_NtNtNtCskxb0fiIX3sM_12librefit_lib2db6schema13intake_targetNtB5_5tableNtNtCs7M5B8tusgtg_6diesel13query_builder7AsQuery8as_query
FN:58,_RNvXs2_NtNtNtCskxb0fiIX3sM_12librefit_lib2db6schema13weight_targetNtB5_5tableNtNtCs7M5B8tusgtg_6diesel13query_builder7AsQuery8as_query
FN:66,_RNvXs2_NtNtNtCskxb0fiIX3sM_12librefit_lib2db6schema14weight_trackerNtB5_5tableNtNtCs7M5B8tusgtg_6diesel13query_builder7AsQuery8as_query
FN:28,_RNvXs2_NtNtNtCskxb0fiIX3sM_12librefit_lib2db6schema6intakeNtB5_5tableNtNtCs7M5B8tusgtg_6diesel13query_builder7AsQuery8as_query
FN:11,_RNvXs2_NtNtNtCskxb0fiIX3sM_12librefit_lib2db6schema9body_dataNtB5_5tableNtNtCs7M5B8tusgtg_6diesel13query_builder7AsQuery8as_query
FN:47,_RNvXs3_NtNtNtCskxb0fiIX3sM_12librefit_lib2db6schema10libre_userNtB5_5tableNtNtCs7M5B8tusgtg_6diesel12query_source5Table11all_columns
FN:47,_RNvXs3_NtNtNtCskxb0fiIX3sM_12librefit_lib2db6schema10libre_userNtB5_5tableNtNtCs7M5B8tusgtg_6diesel12query_source5Table11primary_key
FN:18,_RNvXs3_NtNtNtCskxb0fiIX3sM_12librefit_lib2db6schema13food_categoryNtB5_5tableNtNtCs7M5B8tusgtg_6diesel12query_source5Table11all_columns
FN:18,_RNvXs3_NtNtNtCskxb0fiIX3sM_12librefit_lib2db6schema13food_categoryNtB5_5tableNtNtCs7M5B8tusgtg_6diesel12query_source5Table11primary_key
FN:39,_RNvXs3_NtNtNtCskxb0fiIX3sM_12librefit_lib2db6schema13intake_targetNtB5_5tableNtNtCs7M5B8tusgtg_6diesel12query_source5Table11all_columns
FN:39,_RNvXs3_NtNtNtCskxb0fiIX3sM_12librefit_lib2db6schema13intake_targetNtB5_5tableNtNtCs7M5B8tusgtg_6diesel12query_source5Table11primary_key
FN:58,_RNvXs3_NtNtNtCskxb0fiIX3sM_12librefit_lib2db6schema13weight_targetNtB5_5tableNtNtCs7M5B8tusgtg_6diesel12query_source5Table11all_columns
FN:58,_RNvXs3_NtNtNtCskxb0fiIX3sM_12librefit_lib2db6schema13weight_targetNtB5_5tableNtNtCs7M5B8tusgtg_6diesel12query_source5Table11primary_key
FN:66,_RNvXs3_NtNtNtCskxb0fiIX3sM_12librefit_lib2db6schema14weight_trackerNtB5_5tableNtNtCs7M5B8tusgtg_6diesel12query_source5Table11all_columns
FN:66,_RNvXs3_NtNtNtCskxb0fiIX3sM_12librefit_lib2db6schema14weight_trackerNtB5_5tableNtNtCs7M5B8tusgtg_6diesel12query_source5Table11primary_key
FN:28,_RNvXs3_NtNtNtCskxb0fiIX3sM_12librefit_lib2db6schema6intakeNtB5_5tableNtNtCs7M5B8tusgtg_6diesel12query_source5Table11all_columns
FN:28,_RNvXs3_NtNtNtCskxb0fiIX3sM_12librefit_lib2db6schema6intakeNtB5_5tableNtNtCs7M5B8tusgtg_6diesel12query_source5Table11primary_key
FN:11,_RNvXs3_NtNtNtCskxb0fiIX3sM_12librefit_lib2db6schema9body_dataNtB5_5tableNtNtCs7M5B8tusgtg_6diesel12query_source5Table11all_columns
FN:11,_RNvXs3_NtNtNtCskxb0fiIX3sM_12librefit_lib2db6schema9body_dataNtB5_5tableNtNtCs7M5B8tusgtg_6diesel12query_source5Table11primary_key
FN:47,_RNvXs4_NtNtNtCskxb0fiIX3sM_12librefit_lib2db6schema10libre_userNtB5_5tableNtNtCs7M5B8tusgtg_6diesel12associations8HasTable5table
FN:18,_RNvXs4_NtNtNtCskxb0fiIX3sM_12librefit_lib2db6schema13food_categoryNtB5_5tableNtNtCs7M5B8tusgtg_6diesel12associations8HasTable5table
FN:39,_RNvXs4_NtNtNtCskxb0fiIX3sM_12librefit_lib2db6schema13intake_targetNtB5_5tableNtNtCs7M5B8tusgtg_6diesel12associations8HasTable5table
FN:58,_RNvXs4_NtNtNtCskxb0fiIX3sM_12librefit_lib2db6schema13weight_targetNtB5_5tableNtNtCs7M5B8tusgtg_6diesel12associations8HasTable5table
FN:66,_RNvXs4_NtNtNtCskxb0fiIX3sM_12librefit_lib2db6schema14weight_trackerNtB5_5tableNtNtCs7M5B8tusgtg_6diesel12associations8HasTable5table
FN:28,_RNvXs4_NtNtNtCskxb0fiIX3sM_12librefit_lib2db6schema6intakeNtB5_5tableNtNtCs7M5B8tusgtg_6diesel12associations8HasTable5table
FN:11,_RNvXs4_NtNtNtCskxb0fiIX3sM_12librefit_lib2db6schema9body_dataNtB5_5tableNtNtCs7M5B8tusgtg_6diesel12associations8HasTable5table
FN:47,_RNvXs5_NtNtNtCskxb0fiIX3sM_12librefit_lib2db6schema10libre_userNtB5_5tableNtNtNtNtCs7M5B8tusgtg_6diesel13query_builder16update_statement6target16IntoUpdateTarget18into_update_target
FN:18,_RNvXs5_NtNtNtCskxb0fiIX3sM_12librefit_lib2db6schema13food_categoryNtB5_5tableNtNtNtNtCs7M5B8tusgtg_6diesel13query_builder16update_statement6target16IntoUpdateTarget18into_update_target
FN:39,_RNvXs5_NtNtNtCskxb0fiIX3sM_12librefit_lib2db6schema13intake_targetNtB5_5tableNtNtNtNtCs7M5B8tusgtg_6diesel13query_builder16update_statement6target16IntoUpdateTarget18into_update_target
FN:58,_RNvXs5_NtNtNtCskxb0fiIX3sM_12librefit_lib2db6schema13weight_targetNtB5_5tableNtNtNtNtCs7M5B8tusgtg_6diesel13query_builder16update_statement6target16IntoUpdateTarget18into_update_target
FN:66,_RNvXs5_NtNtNtCskxb0fiIX3sM_12librefit_lib2db6schema14weight_trackerNtB5_5tableNtNtNtNtCs7M5B8tusgtg_6diesel13query_builder16update_statement6target16IntoUpdateTarget18into_update_target
FN:28,_RNvXs5_NtNtNtCskxb0fiIX3sM_12librefit_lib2db6schema6intakeNtB5_5tableNtNtNtNtCs7M5B8tusgtg_6diesel13query_builder16update_statement6target16IntoUpdateTarget18into_update_target
FN:11,_RNvXs5_NtNtNtCskxb0fiIX3sM_12librefit_lib2db6schema9body_dataNtB5_5tableNtNtNtNtCs7M5B8tusgtg_6diesel13query_builder16update_statement6target16IntoUpdateTarget18into_update_target
FN:47,_RNvXs_NtNtNtCskxb0fiIX3sM_12librefit_lib2db6schema10libre_userNtB4_5tableNtNtCs7M5B8tusgtg_6diesel12query_source11QuerySource11from_clause
FN:47,_RNvXs_NtNtNtCskxb0fiIX3sM_12librefit_lib2db6schema10libre_userNtB4_5tableNtNtCs7M5B8tusgtg_6diesel12query_source11QuerySource17default_selection
FN:18,_RNvXs_NtNtNtCskxb0fiIX3sM_12librefit_lib2db6schema13food_categoryNtB4_5tableNtNtCs7M5B8tusgtg_6diesel12query_source11QuerySource11from_clause
FN:18,_RNvXs_NtNtNtCskxb0fiIX3sM_12librefit_lib2db6schema13food_categoryNtB4_5tableNtNtCs7M5B8tusgtg_6diesel12query_source11QuerySource17default_selection
FN:39,_RNvXs_NtNtNtCskxb0fiIX3sM_12librefit_lib2db6schema13intake_targetNtB4_5tableNtNtCs7M5B8tusgtg_6diesel12query_source11QuerySource11from_clause
FN:39,_RNvXs_NtNtNtCskxb0fiIX3sM_12librefit_lib2db6schema13intake_targetNtB4_5tableNtNtCs7M5B8tusgtg_6diesel12query_source11QuerySource17default_selection
FN:58,_RNvXs_NtNtNtCskxb0fiIX3sM_12librefit_lib2db6schema13weight_targetNtB4_5tableNtNtCs7M5B8tusgtg_6diesel12query_source11QuerySource11from_clause
FN:58,_RNvXs_NtNtNtCskxb0fiIX3sM_12librefit_lib2db6schema13weight_targetNtB4_5tableNtNtCs7M5B8tusgtg_6diesel12query_source11QuerySource17default_selection
FN:66,_RNvXs_NtNtNtCskxb0fiIX3sM_12librefit_lib2db6schema14weight_trackerNtB4_5tableNtNtCs7M5B8tusgtg_6diesel12query_source11QuerySource11from_clause
FN:66,_RNvXs_NtNtNtCskxb0fiIX3sM_12librefit_lib2db6schema14weight_trackerNtB4_5tableNtNtCs7M5B8tusgtg_6diesel12query_source11QuerySource17default_selection
FN:28,_RNvXs_NtNtNtCskxb0fiIX3sM_12librefit_lib2db6schema6intakeNtB4_5tableNtNtCs7M5B8tusgtg_6diesel12query_source11QuerySource11from_clause
FN:28,_RNvXs_NtNtNtCskxb0fiIX3sM_12librefit_lib2db6schema6intakeNtB4_5tableNtNtCs7M5B8tusgtg_6diesel12query_source11QuerySource17default_selection
FN:11,_RNvXs_NtNtNtCskxb0fiIX3sM_12librefit_lib2db6schema9body_dataNtB4_5tableNtNtCs7M5B8tusgtg_6diesel12query_source11QuerySource11from_clause
FN:11,_RNvXs_NtNtNtCskxb0fiIX3sM_12librefit_lib2db6schema9body_dataNtB4_5tableNtNtCs7M5B8tusgtg_6diesel12query_source11QuerySource17default_selection
FNDA:0,_RNvXININtNtNtCs99Oc0knXXS8_12librefit_lib2db6schema10libre_users0_0pENtB5_5tableINtNtCs7M5B8tusgtg_6diesel13query_builder13QueryFragmentpE8walk_astBb_
FNDA:0,_RNvXININtNtNtCs99Oc0knXXS8_12librefit_lib2db6schema10libre_usersa_0ppENtB5_5tableINtNtNtNtCs7M5B8tusgtg_6diesel12query_source8aliasing18field_alias_mapper48FieldAliasMapperAssociatedTypesDisjointnessTrickB16_ppE3mapBb_
FNDA:0,_RNvXININtNtNtCs99Oc0knXXS8_12librefit_lib2db6schema10libre_usersc_0pppENtB5_5tableINtNtNtCs7M5B8tusgtg_6diesel12query_source5joins6JoinToINtB1l_4JoinpppEE11join_targetBb_
FNDA:0,_RNvXININtNtNtCs99Oc0knXXS8_12librefit_lib2db6schema10libre_usersd_0ppENtB5_5tableINtNtNtCs7M5B8tusgtg_6diesel12query_source5joins6JoinToINtB1k_6JoinOnppEE11join_targetBb_
FNDA:0,_RNvXININtNtNtCs99Oc0knXXS8_12librefit_lib2db6schema10libre_userse_0ppppppppENtB5_5tableINtNtNtCs7M5B8tusgtg_6diesel12query_source5joins6JoinToINtNtNtB1u_13query_builder16select_statement15SelectStatementINtNtB2l_11from_clause10FromClausepEpppppppEE11join_targetBb_
FNDA:0,_RNvXININtNtNtCs99Oc0knXXS8_12librefit_lib2db6schema10libre_usersf_0pppENtB5_5tableINtNtNtCs7M5B8tusgtg_6diesel12query_source5joins6JoinToINtNtNtNtB1p_13query_builder16select_statement5boxed20BoxedSelectStatementINtNtB2i_11from_clause10FromClausepEppEE11join_targetBb_
FNDA:0,_RNvXININtNtNtCs99Oc0knXXS8_12librefit_lib2db6schema10libre_usersg_0pENtB5_5tableINtNtNtCs7M5B8tusgtg_6diesel12query_source5joins6JoinToINtNtNtB1l_8aliasing5alias5AliaspEE11join_targetBb_
FNDA:0,_RNvXININtNtNtCs99Oc0knXXS8_12librefit_lib2db6schema10libre_usersh_0pENtB5_5tableINtNtCs7M5B8tusgtg_6diesel10insertable10InsertablepE6valuesBb_
FNDA:0,_RNvXININtNtNtCs99Oc0knXXS8_12librefit_lib2db6schema10libre_usersi_0pERNtB5_5tableINtNtCs7M5B8tusgtg_6diesel10insertable10InsertablepE6valuesBb_
FNDA:0,_RNvXININtNtNtCs99Oc0knXXS8_12librefit_lib2db6schema13food_categorys0_0pENtB5_5tableINtNtCs7M5B8tusgtg_6diesel13query_builder13QueryFragmentpE8walk_astBb_
FNDA:0,_RNvXININtNtNtCs99Oc0knXXS8_12librefit_lib2db6schema13food_categorysa_0ppENtB5_5tableINtNtNtNtCs7M5B8tusgtg_6diesel12query_source8aliasing18field_alias_mapper48FieldAliasMapperAssociatedTypesDisjointnessTrickB19_ppE3mapBb_
FNDA:0,_RNvXININtNtNtCs99Oc0knXXS8_12librefit_lib2db6schema13food_categorysc_0pppENtB5_5tableINtNtNtCs7M5B8tusgtg_6diesel12query_source5joins6JoinToINtB1o_4JoinpppEE11join_targetBb_
FNDA:0,_RNvXININtNtNtCs99Oc0knXXS8_12librefit_lib2db6schema13food_categorysd_0ppENtB5_5tableINtNtNtCs7M5B8tusgtg_6diesel12query_source5joins6JoinToINtB1n_6JoinOnppEE11join_targetBb_
FNDA:0,_RNvXININtNtNtCs99Oc0knXXS8_12librefit_lib2db6schema13food_categoryse_0ppppppppENtB5_5tableINtNtNtCs7M5B8tusgtg_6diesel12query_source5joins6JoinToINtNtNtB1x_13query_builder16select_statement15SelectStatementINtNtB2o_11from_clause10FromClausepEpppppppEE11join_targetBb_
FNDA:0,_RNvXININtNtNtCs99Oc0knXXS8_12librefit_lib2db6schema13food_categorysf_0pppENtB5_5tableINtNtNtCs7M5B8tusgtg_6diesel12query_source5joins6JoinToINtNtNtNtB1s_13query_builder16select_statement5boxed20BoxedSelectStatementINtNtB2l_11from_clause10FromClausepEppEE11join_targetBb_
FNDA:0,_RNvXININtNtNtCs99Oc0knXXS8_12librefit_lib2db6schema13food_categorysg_0pENtB5_5tableINtNtNtCs7M5B8tusgtg_6diesel12query_source5joins6JoinToINtNtNtB1o_8aliasing5alias5AliaspEE11join_targetBb_
FNDA:0,_RNvXININtNtNtCs99Oc0knXXS8_12librefit_lib2db6schema13food_categorysh_0pENtB5_5tableINtNtCs7M5B8tusgtg_6diesel10insertable10InsertablepE6valuesBb_
FNDA:0,_RNvXININtNtNtCs99Oc0knXXS8_12librefit_lib2db6schema13food_categorysi_0pERNtB5_5tableINtNtCs7M5B8tusgtg_6diesel10insertable10InsertablepE6valuesBb_
FNDA:0,_RNvXININtNtNtCs99Oc0knXXS8_12librefit_lib2db6schema13intake_targets0_0pENtB5_5tableINtNtCs7M5B8tusgtg_6diesel13query_builder13QueryFragmentpE8walk_astBb_
FNDA:0,_RNvXININtNtNtCs99Oc0knXXS8_12librefit_lib2db6schema13intake_targetsa_0ppENtB5_5tableINtNtNtNtCs7M5B8tusgtg_6diesel12query_source8aliasing18field_alias_mapper48FieldAliasMapperAssociatedTypesDisjointnessTrickB19_ppE3mapBb_
FNDA:0,_RNvXININtNtNtCs99Oc0knXXS8_12librefit_lib2db6schema13intake_targetsc_0pppENtB5_5tableINtNtNtCs7M5B8tusgtg_6diesel12query_source5joins6JoinToINtB1o_4JoinpppEE11join_targetBb_
FNDA:0,_RNvXININtNtNtCs99Oc0knXXS8_12librefit_lib2db6schema13intake_targetsd_0ppENtB5_5tableINtNtNtCs7M5B8tusgtg_6diesel12query_source5joins6JoinToINtB1n_6JoinOnppEE11join_targetBb_
FNDA:0,_RNvXININtNtNtCs99Oc0knXXS8_12librefit_lib2db6schema13intake_targetse_0ppppppppENtB5_5tableINtNtNtCs7M5B8tusgtg_6diesel12query_source5joins6JoinToINtNtNtB1x_13query_builder16select_statement15SelectStatementINtNtB2o_11from_clause10FromClausepEpppppppEE11join_targetBb_
FNDA:0,_RNvXININtNtNtCs99Oc0knXXS8_12librefit_lib2db6schema13intake_targetsf_0pppENtB5_5tableINtNtNtCs7M5B8tusgtg_6diesel12query_source5joins6JoinToINtNtNtNtB1s_13query_builder16select_statement5boxed20BoxedSelectStatementINtNtB2l_11from_clause10FromClausepEppEE11join_targetBb_
FNDA:0,_RNvXININtNtNtCs99Oc0knXXS8_12librefit_lib2db6schema13intake_targetsg_0pENtB5_5tableINtNtNtCs7M5B8tusgtg_6diesel12query_source5joins6JoinToINtNtNtB1o_8aliasing5alias5AliaspEE11join_targetBb_
FNDA:0,_RNvXININtNtNtCs99Oc0knXXS8_12librefit_lib2db6schema13intake_targetsh_0pENtB5_5tableINtNtCs7M5B8tusgtg_6diesel10insertable10InsertablepE6valuesBb_
FNDA:0,_RNvXININtNtNtCs99Oc0knXXS8_12librefit_lib2db6schema13intake_targetsi_0pERNtB5_5tableINtNtCs7M5B8tusgtg_6diesel10insertable10InsertablepE6valuesBb_
FNDA:0,_RNvXININtNtNtCs99Oc0knXXS8_12librefit_lib2db6schema13weight_targets0_0pENtB5_5tableINtNtCs7M5B8tusgtg_6diesel13query_builder13QueryFragmentpE8walk_astBb_
FNDA:0,_RNvXININtNtNtCs99Oc0knXXS8_12librefit_lib2db6schema13weight_targetsa_0ppENtB5_5tableINtNtNtNtCs7M5B8tusgtg_6diesel12query_source8aliasing18field_alias_mapper48FieldAliasMapperAssociatedTypesDisjointnessTrickB19_ppE3mapBb_
FNDA:0,_RNvXININtNtNtCs99Oc0knXXS8_12librefit_lib2db6schema13weight_targetsc_0pppENtB5_5tableINtNtNtCs7M5B8tusgtg_6diesel12query_source5joins6JoinToINtB1o_4JoinpppEE11join_targetBb_
FNDA:0,_RNvXININtNtNtCs99Oc0knXXS8_12librefit_lib2db6schema13weight_targetsd_0ppENtB5_5tableINtNtNtCs7M5B8tusgtg_6diesel12query_source5joins6JoinToINtB1n_6JoinOnppEE11join_targetBb_
FNDA:0,_RNvXININtNtNtCs99Oc0knXXS8_12librefit_lib2db6schema13weight_targetse_0ppppppppENtB5_5tableINtNtNtCs7M5B8tusgtg_6diesel12query_source5joins6JoinToINtNtNtB1x_13query_builder16select_statement15SelectStatementINtNtB2o_11from_clause10FromClausepEpppppppEE11join_targetBb_
FNDA:0,_RNvXININtNtNtCs99Oc0knXXS8_12librefit_lib2db6schema13weight_targetsf_0pppENtB5_5tableINtNtNtCs7M5B8tusgtg_6diesel12query_source5joins6JoinToINtNtNtNtB1s_13query_builder16select_statement5boxed20BoxedSelectStatementINtNtB2l_11from_clause10FromClausepEppEE11join_targetBb_
FNDA:0,_RNvXININtNtNtCs99Oc0knXXS8_12librefit_lib2db6schema13weight_targetsg_0pENtB5_5tableINtNtNtCs7M5B8tusgtg_6diesel12query_source5joins6JoinToINtNtNtB1o_8aliasing5alias5AliaspEE11join_targetBb_
FNDA:0,_RNvXININtNtNtCs99Oc0knXXS8_12librefit_lib2db6schema13weight_targetsh_0pENtB5_5tableINtNtCs7M5B8tusgtg_6diesel10insertable10InsertablepE6valuesBb_
FNDA:0,_RNvXININtNtNtCs99Oc0knXXS8_12librefit_lib2db6schema13weight_targetsi_0pERNtB5_5tableINtNtCs7M5B8tusgtg_6diesel10insertable10InsertablepE6valuesBb_
FNDA:0,_RNvXININtNtNtCs99Oc0knXXS8_12librefit_lib2db6schema14weight_trackers0_0pENtB5_5tableINtNtCs7M5B8tusgtg_6diesel13query_builder13QueryFragmentpE8walk_astBb_
FNDA:0,_RNvXININtNtNtCs99Oc0knXXS8_12librefit_lib2db6schema14weight_trackersa_0ppENtB5_5tableINtNtNtNtCs7M5B8tusgtg_6diesel12query_source8aliasing18field_alias_mapper48FieldAliasMapperAssociatedTypesDisjointnessTrickB1a_ppE3mapBb_
FNDA:0,_RNvXININtNtNtCs99Oc0knXXS8_12librefit_lib2db6schema14weight_trackersc_0pppENtB5_5tableINtNtNtCs7M5B8tusgtg_6diesel12query_source5joins6JoinToINtB1p_4JoinpppEE11join_targetBb_
FNDA:0,_RNvXININtNtNtCs99Oc0knXXS8_12librefit_lib2db6schema14weight_trackersd_0ppENtB5_5tableINtNtNtCs7M5B8tusgtg_6diesel12query_source5joins6JoinToINtB1o_6JoinOnppEE11join_targetBb_
FNDA:0,_RNvXININtNtNtCs99Oc0knXXS8_12librefit_lib2db6schema14weight_trackerse_0ppppppppENtB5_5tableINtNtNtCs7M5B8tusgtg_6diesel12query_source5joins6JoinToINtNtNtB1y_13query_builder16select_statement15SelectStatementINtNtB2p_11from_clause10FromClausepEpppppppEE11join_targetBb_
FNDA:0,_RNvXININtNtNtCs99Oc0knXXS8_12librefit_lib2db6schema14weight_trackersf_0pppENtB5_5tableINtNtNtCs7M5B8tusgtg_6diesel12query_source5joins6JoinToINtNtNtNtB1t_13query_builder16select_statement5boxed20BoxedSelectStatementINtNtB2m_11from_clause10FromClausepEppEE11join_targetBb_
FNDA:0,_RNvXININtNtNtCs99Oc0knXXS8_12librefit_lib2db6schema14weight_trackersg_0pENtB5_5tableINtNtNtCs7M5B8tusgtg_6diesel12query_source5joins6JoinToINtNtNtB1p_8aliasing5alias5AliaspEE11join_targetBb_
FNDA:0,_RNvXININtNtNtCs99Oc0knXXS8_12librefit_lib2db6schema14weight_trackersh_0pENtB5_5tableINtNtCs7M5B8tusgtg_6diesel10insertable10InsertablepE6valuesBb_
FNDA:0,_RNvXININtNtNtCs99Oc0knXXS8_12librefit_lib2db6schema14weight_trackersi_0pERNtB5_5tableINtNtCs7M5B8tusgtg_6diesel10insertable10InsertablepE6valuesBb_
FNDA:0,_RNvXININtNtNtCs99Oc0knXXS8_12librefit_lib2db6schema6intakes0_0pENtB5_5tableINtNtCs7M5B8tusgtg_6diesel13query_builder13QueryFragmentpE8walk_astBb_
FNDA:0,_RNvXININtNtNtCs99Oc0knXXS8_12librefit_lib2db6schema6intakesa_0ppENtB5_5tableINtNtNtNtCs7M5B8tusgtg_6diesel12query_source8aliasing18field_alias_mapper48FieldAliasMapperAssociatedTypesDisjointnessTrickB11_ppE3mapBb_
FNDA:0,_RNvXININtNtNtCs99Oc0knXXS8_12librefit_lib2db6schema6intakesc_0pppENtB5_5tableINtNtNtCs7M5B8tusgtg_6diesel12query_source5joins6JoinToINtB1g_4JoinpppEE11join_targetBb_
FNDA:0,_RNvXININtNtNtCs99Oc0knXXS8_12librefit_lib2db6schema6intakesd_0ppENtB5_5tableINtNtNtCs7M5B8tusgtg_6diesel12query_source5joins6JoinToINtB1f_6JoinOnppEE11join_targetBb_
FNDA:0,_RNvXININtNtNtCs99Oc0knXXS8_12librefit_lib2db6schema6intakese_0ppppppppENtB5_5tableINtNtNtCs7M5B8tusgtg_6diesel12query_source5joins6JoinToINtNtNtB1p_13query_builder16select_statement15SelectStatementINtNtB2g_11from_clause10FromClausepEpppppppEE11join_targetBb_
FNDA:0,_RNvXININtNtNtCs99Oc0knXXS8_12librefit_lib2db6schema6intakesf_0pppENtB5_5tableINtNtNtCs7M5B8tusgtg_6diesel12query_source5joins6JoinToINtNtNtNtB1k_13query_builder16select_statement5boxed20BoxedSelectStatementINtNtB2d_11from_clause10FromClausepEppEE11join_targetBb_
FNDA:0,_RNvXININtNtNtCs99Oc0knXXS8_12librefit_lib2db6schema6intakesg_0pENtB5_5tableINtNtNtCs7M5B8tusgtg_6diesel12query_source5joins6JoinToINtNtNtB1g_8aliasing5alias5AliaspEE11join_targetBb_
FNDA:0,_RNvXININtNtNtCs99Oc0knXXS8_12librefit_lib2db6schema6intakesh_0pENtB5_5tableINtNtCs7M5B8tusgtg_6diesel10insertable10InsertablepE6valuesBb_
FNDA:0,_RNvXININtNtNtCs99Oc0knXXS8_12librefit_lib2db6schema6intakesi_0pERNtB5_5tableINtNtCs7M5B8tusgtg_6diesel10insertable10InsertablepE6valuesBb_
FNDA:0,_RNvXININtNtNtCs99Oc0knXXS8_12librefit_lib2db6schema9body_datas0_0pENtB5_5tableINtNtCs7M5B8tusgtg_6diesel13query_builder13QueryFragmentpE8walk_astBb_
FNDA:0,_RNvXININtNtNtCs99Oc0knXXS8_12librefit_lib2db6schema9body_datasa_0ppENtB5_5tableINtNtNtNtCs7M5B8tusgtg_6diesel12query_source8aliasing18field_alias_mapper48FieldAliasMapperAssociatedTypesDisjointnessTrickB14_ppE3mapBb_
FNDA:0,_RNvXININtNtNtCs99Oc0knXXS8_12librefit_lib2db6schema9body_datasc_0pppENtB5_5tableINtNtNtCs7M5B8tusgtg_6diesel12query_source5joins6JoinToINtB1j_4JoinpppEE11join_targetBb_
FNDA:0,_RNvXININtNtNtCs99Oc0knXXS8_12librefit_lib2db6schema9body_datasd_0ppENtB5_5tableINtNtNtCs7M5B8tusgtg_6diesel12query_source5joins6JoinToINtB1i_6JoinOnppEE11join_targetBb_
FNDA:0,_RNvXININtNtNtCs99Oc0knXXS8_12librefit_lib2db6schema9body_datase_0ppppppppENtB5_5tableINtNtNtCs7M5B8tusgtg_6diesel12query_source5joins6JoinToINtNtNtB1s_13query_builder16select_statement15SelectStatementINtNtB2j_11from_clause10FromClausepEpppppppEE11join_targetBb_
FNDA:0,_RNvXININtNtNtCs99Oc0knXXS8_12librefit_lib2db6schema9body_datasf_0pppENtB5_5tableINtNtNtCs7M5B8tusgtg_6diesel12query_source5joins6JoinToINtNtNtNtB1n_13query_builder16select_statement5boxed20BoxedSelectStatementINtNtB2g_11from_clause10FromClausepEppEE11join_targetBb_
FNDA:0,_RNvXININtNtNtCs99Oc0knXXS8_12librefit_lib2db6schema9body_datasg_0pENtB5_5tableINtNtNtCs7M5B8tusgtg_6diesel12query_source5joins6JoinToINtNtNtB1j_8aliasing5alias5AliaspEE11join_targetBb_
FNDA:0,_RNvXININtNtNtCs99Oc0knXXS8_12librefit_lib2db6schema9body_datash_0pENtB5_5tableINtNtCs7M5B8tusgtg_6diesel10insertable10InsertablepE6valuesBb_
FNDA:0,_RNvXININtNtNtCs99Oc0knXXS8_12librefit_lib2db6schema9body_datasi_0pERNtB5_5tableINtNtCs7M5B8tusgtg_6diesel10insertable10InsertablepE6valuesBb_
FNDA:0,_RNvXININtNtNtNtCs99Oc0knXXS8_12librefit_lib2db6schema10libre_user7columnss0_0pENtB5_4starINtNtCs7M5B8tusgtg_6diesel13query_builder13QueryFragmentpE8walk_astBd_
FNDA:0,_RNvXININtNtNtNtCs99Oc0knXXS8_12librefit_lib2db6schema10libre_user7columnssg_0pENtB5_2idINtNtNtCs1FLWZe5rD62_4core3ops5arith3AddpE3addBd_
FNDA:0,_RNvXININtNtNtNtCs99Oc0knXXS8_12librefit_lib2db6schema10libre_user7columnssh_0pENtB5_2idINtNtNtCs1FLWZe5rD62_4core3ops5arith3SubpE3subBd_
FNDA:0,_RNvXININtNtNtNtCs99Oc0knXXS8_12librefit_lib2db6schema10libre_user7columnssi_0pENtB5_2idINtNtNtCs1FLWZe5rD62_4core3ops5arith3DivpE3divBd_
FNDA:0,_RNvXININtNtNtNtCs99Oc0knXXS8_12librefit_lib2db6schema10libre_user7columnssj_0pENtB5_2idINtNtNtCs1FLWZe5rD62_4core3ops5arith3MulpE3mulBd_
FNDA:0,_RNvXININtNtNtNtCs99Oc0knXXS8_12librefit_lib2db6schema13food_category7columnss0_0pENtB5_4starINtNtCs7M5B8tusgtg_6diesel13query_builder13QueryFragmentpE8walk_astBd_
FNDA:0,_RNvXININtNtNtNtCs99Oc0knXXS8_12librefit_lib2db6schema13intake_target7columnss0_0pENtB5_4starINtNtCs7M5B8tusgtg_6diesel13query_builder13QueryFragmentpE8walk_astBd_
FNDA:0,_RNvXININtNtNtNtCs99Oc0knXXS8_12librefit_lib2db6schema13intake_target7columnss10_0pENtB5_16maximum_caloriesINtNtNtCs1FLWZe5rD62_4core3ops5arith3MulpE3mulBd_
FNDA:0,_RNvXININtNtNtNtCs99Oc0knXXS8_12librefit_lib2db6schema13intake_target7columnss1r_0pENtB5_15target_caloriesINtNtNtCs1FLWZe5rD62_4core3ops5arith3AddpE3addBd_
FNDA:0,_RNvXININtNtNtNtCs99Oc0knXXS8_12librefit_lib2db6schema13intake_target7columnss1s_0pENtB5_15target_caloriesINtNtNtCs1FLWZe5rD62_4core3ops5arith3SubpE3subBd_
FNDA:0,_RNvXININtNtNtNtCs99Oc0knXXS8_12librefit_lib2db6schema13intake_target7columnss1t_0pENtB5_15target_caloriesINtNtNtCs1FLWZe5rD62_4core3ops5arith3DivpE3divBd_
FNDA:0,_RNvXININtNtNtNtCs99Oc0knXXS8_12librefit_lib2db6schema13intake_target7columnss1u_0pENtB5_15target_caloriesINtNtNtCs1FLWZe5rD62_4core3ops5arith3MulpE3mulBd_
FNDA:0,_RNvXININtNtNtNtCs99Oc0knXXS8_12librefit_lib2db6schema13intake_target7columnssX_0pENtB5_16maximum_caloriesINtNtNtCs1FLWZe5rD62_4core3ops5arith3AddpE3addBd_
FNDA:0,_RNvXININtNtNtNtCs99Oc0knXXS8_12librefit_lib2db6schema13intake_target7columnssY_0pENtB5_16maximum_caloriesINtNtNtCs1FLWZe5rD62_4core3ops5arith3SubpE3subBd_
FNDA:0,_RNvXININtNtNtNtCs99Oc0knXXS8_12librefit_lib2db6schema13intake_target7columnssZ_0pENtB5_16maximum_caloriesINtNtNtCs1FLWZe5rD62_4core3ops5arith3DivpE3divBd_
FNDA:0,_RNvXININtNtNtNtCs99Oc0knXXS8_12librefit_lib2db6schema13intake_target7columnssg_0pENtB5_2idINtNtNtCs1FLWZe5rD62_4core3ops5arith3AddpE3addBd_
FNDA:0,_RNvXININtNtNtNtCs99Oc0knXXS8_12librefit_lib2db6schema13intake_target7columnssh_0pENtB5_2idINtNtNtCs1FLWZe5rD62_4core3ops5arith3SubpE3subBd_
FNDA:0,_RNvXININtNtNtNtCs99Oc0knXXS8_12librefit_lib2db6schema13intake_target7columnssi_0pENtB5_2idINtNtNtCs1FLWZe5rD62_4core3ops5arith3DivpE3divBd_
FNDA:0,_RNvXININtNtNtNtCs99Oc0knXXS8_12librefit_lib2db6schema13intake_target7columnssj_0pENtB5_2idINtNtNtCs1FLWZe5rD62_4core3ops5arith3MulpE3mulBd_
FNDA:0,_RNvXININtNtNtNtCs99Oc0knXXS8_12librefit_lib2db6schema13weight_target7columnss0_0pENtB5_4starINtNtCs7M5B8tusgtg_6diesel13query_builder13QueryFragmentpE8walk_astBd_
FNDA:0,_RNvXININtNtNtNtCs99Oc0knXXS8_12librefit_lib2db6schema13weight_target7columnss10_0pENtB5_14initial_weightINtNtNtCs1FLWZe5rD62_4core3ops5arith3MulpE3mulBd_
FNDA:0,_RNvXININtNtNtNtCs99Oc0knXXS8_12librefit_lib2db6schema13weight_target7columnss1r_0pENtB5_13target_weightINtNtNtCs1FLWZe5rD62_4core3ops5arith3AddpE3addBd_
FNDA:0,_RNvXININtNtNtNtCs99Oc0knXXS8_12librefit_lib2db6schema13weight_target7columnss1s_0pENtB5_13target_weightINtNtNtCs1FLWZe5rD62_4core3ops5arith3SubpE3subBd_
FNDA:0,_RNvXININtNtNtNtCs99Oc0knXXS8_12librefit_lib2db6schema13weight_target7columnss1t_0pENtB5_13target_weightINtNtNtCs1FLWZe5rD62_4core3ops5arith3DivpE3divBd_
FNDA:0,_RNvXININtNtNtNtCs99Oc0knXXS8_12librefit_lib2db6schema13weight_target7columnss1u_0pENtB5_13target_weightINtNtNtCs1FLWZe5rD62_4core3ops5arith3MulpE3mulBd_
FNDA:0,_RNvXININtNtNtNtCs99Oc0knXXS8_12librefit_lib2db6schema13weight_target7columnssX_0pENtB5_14initial_weightINtNtNtCs1FLWZe5rD62_4core3ops5arith3AddpE3addBd_
FNDA:0,_RNvXININtNtNtNtCs99Oc0knXXS8_12librefit_lib2db6schema13weight_target7columnssY_0pENtB5_14initial_weightINtNtNtCs1FLWZe5rD62_4core3ops5arith3SubpE3subBd_
FNDA:0,_RNvXININtNtNtNtCs99Oc0knXXS8_12librefit_lib2db6schema13weight_target7columnssZ_0pENtB5_14initial_weightINtNtNtCs1FLWZe5rD62_4core3ops5arith3DivpE3divBd_
FNDA:0,_RNvXININtNtNtNtCs99Oc0knXXS8_12librefit_lib2db6schema13weight_target7columnssg_0pENtB5_2idINtNtNtCs1FLWZe5rD62_4core3ops5arith3AddpE3addBd_
FNDA:0,_RNvXININtNtNtNtCs99Oc0knXXS8_12librefit_lib2db6schema13weight_target7columnssh_0pENtB5_2idINtNtNtCs1FLWZe5rD62_4core3ops5arith3SubpE3subBd_
FNDA:0,_RNvXININtNtNtNtCs99Oc0knXXS8_12librefit_lib2db6schema13weight_target7columnssi_0pENtB5_2idINtNtNtCs1FLWZe5rD62_4core3ops5arith3DivpE3divBd_
FNDA:0,_RNvXININtNtNtNtCs99Oc0knXXS8_12librefit_lib2db6schema13weight_target7columnssj_0pENtB5_2idINtNtNtCs1FLWZe5rD62_4core3ops5arith3MulpE3mulBd_
FNDA:0,_RNvXININtNtNtNtCs99Oc0knXXS8_12librefit_lib2db6schema14weight_tracker7columnss0_0pENtB5_4starINtNtCs7M5B8tusgtg_6diesel13query_builder13QueryFragmentpE8walk_astBd_
FNDA:0,_RNvXININtNtNtNtCs99Oc0knXXS8_12librefit_lib2db6schema14weight_tracker7columnssK_0pENtB5_6amountINtNtNtCs1FLWZe5rD62_4core3ops5arith3AddpE3addBd_
FNDA:0,_RNvXININtNtNtNtCs99Oc0knXXS8_12librefit_lib2db6schema14weight_tracker7columnssL_0pENtB5_6amountINtNtNtCs1FLWZe5rD62_4core3ops5arith3SubpE3subBd_
FNDA:0,_RNvXININtNtNtNtCs99Oc0knXXS8_12librefit_lib2db6schema14weight_tracker7columnssM_0pENtB5_6amountINtNtNtCs1FLWZe5rD62_4core3ops5arith3DivpE3divBd_
FNDA:0,_RNvXININtNtNtNtCs99Oc0knXXS8_12librefit_lib2db6schema14weight_tracker7columnssN_0pENtB5_6amountINtNtNtCs1FLWZe5rD62_4core3ops5arith3MulpE3mulBd_
FNDA:0,_RNvXININtNtNtNtCs99Oc0knXXS8_12librefit_lib2db6schema14weight_tracker7columnssg_0pENtB5_2idINtNtNtCs1FLWZe5rD62_4core3ops5arith3AddpE3addBd_
FNDA:0,_RNvXININtNtNtNtCs99Oc0knXXS8_12librefit_lib2db6schema14weight_tracker7columnssh_0pENtB5_2idINtNtNtCs1FLWZe5rD62_4core3ops5arith3SubpE3subBd_
FNDA:0,_RNvXININtNtNtNtCs99Oc0knXXS8_12librefit_lib2db6schema14weight_tracker7columnssi_0pENtB5_2idINtNtNtCs1FLWZe5rD62_4core3ops5arith3DivpE3divBd_
FNDA:0,_RNvXININtNtNtNtCs99Oc0knXXS8_12librefit_lib2db6schema14weight_tracker7columnssj_0pENtB5_2idINtNtNtCs1FLWZe5rD62_4core3ops5arith3MulpE3mulBd_
FNDA:0,_RNvXININtNtNtNtCs99Oc0knXXS8_12librefit_lib2db6schema6intake7columnss0_0pENtB5_4starINtNtCs7M5B8tusgtg_6diesel13query_builder13QueryFragmentpE8walk_astBd_
FNDA:0,_RNvXININtNtNtNtCs99Oc0knXXS8_12librefit_lib2db6schema6intake7columnssK_0pENtB5_6amountINtNtNtCs1FLWZe5rD62_4core3ops5arith3AddpE3addBd_
FNDA:0,_RNvXININtNtNtNtCs99Oc0knXXS8_12librefit_lib2db6schema6intake7columnssL_0pENtB5_6amountINtNtNtCs1FLWZe5rD62_4core3ops5arith3SubpE3subBd_
FNDA:0,_RNvXININtNtNtNtCs99Oc0knXXS8_12librefit_lib2db6schema6intake7columnssM_0pENtB5_6amountINtNtNtCs1FLWZe5rD62_4core3ops5arith3DivpE3divBd_
FNDA:0,_RNvXININtNtNtNtCs99Oc0knXXS8_12librefit_lib2db6schema6intake7columnssN_0pENtB5_6amountINtNtNtCs1FLWZe5rD62_4core3ops5arith3MulpE3mulBd_
FNDA:0,_RNvXININtNtNtNtCs99Oc0knXXS8_12librefit_lib2db6schema6intake7columnssg_0pENtB5_2idINtNtNtCs1FLWZe5rD62_4core3ops5arith3AddpE3addBd_
FNDA:0,_RNvXININtNtNtNtCs99Oc0knXXS8_12librefit_lib2db6schema6intake7columnssh_0pENtB5_2idINtNtNtCs1FLWZe5rD62_4core3ops5arith3SubpE3subBd_
FNDA:0,_RNvXININtNtNtNtCs99Oc0knXXS8_12librefit_lib2db6schema6intake7columnssi_0pENtB5_2idINtNtNtCs1FLWZe5rD62_4core3ops5arith3DivpE3divBd_
FNDA:0,_RNvXININtNtNtNtCs99Oc0knXXS8_12librefit_lib2db6schema6intake7columnssj_0pENtB5_2idINtNtNtCs1FLWZe5rD62_4core3ops5arith3MulpE3mulBd_
FNDA:0,_RNvXININtNtNtNtCs99Oc0knXXS8_12librefit_lib2db6schema9body_data7columnss0_0pENtB5_4starINtNtCs7M5B8tusgtg_6diesel13query_builder13QueryFragmentpE8walk_astBd_
FNDA:0,_RNvXININtNtNtNtCs99Oc0knXXS8_12librefit_lib2db6schema9body_data7columnss15_0pENtB5_6weightINtNtNtCs1FLWZe5rD62_4core3ops5arith3AddpE3addBd_
FNDA:0,_RNvXININtNtNtNtCs99Oc0knXXS8_12librefit_lib2db6schema9body_data7columnss16_0pENtB5_6weightINtNtNtCs1FLWZe5rD62_4core3ops5arith3SubpE3subBd_
FNDA:0,_RNvXININtNtNtNtCs99Oc0knXXS8_12librefit_lib2db6schema9body_data7columnss17_0pENtB5_6weightINtNtNtCs1FLWZe5rD62_4core3ops5arith3DivpE3divBd_
FNDA:0,_RNvXININtNtNtNtCs99Oc0knXXS8_12librefit_lib2db6schema9body_data7columnss18_0pENtB5_6weightINtNtNtCs1FLWZe5rD62_4core3ops5arith3MulpE3mulBd_
FNDA:0,_RNvXININtNtNtNtCs99Oc0knXXS8_12librefit_lib2db6schema9body_data7columnssA_0pENtB5_3ageINtNtNtCs1FLWZe5rD62_4core3ops5arith3MulpE3mulBd_
FNDA:0,_RNvXININtNtNtNtCs99Oc0knXXS8_12librefit_lib2db6schema9body_data7columnssO_0pENtB5_6heightINtNtNtCs1FLWZe5rD62_4core3ops5arith3AddpE3addBd_
FNDA:0,_RNvXININtNtNtNtCs99Oc0knXXS8_12librefit_lib2db6schema9body_data7columnssP_0pENtB5_6heightINtNtNtCs1FLWZe5rD62_4core3ops5arith3SubpE3subBd_
FNDA:0,_RNvXININtNtNtNtCs99Oc0knXXS8_12librefit_lib2db6schema9body_data7columnssQ_0pENtB5_6heightINtNtNtCs1FLWZe5rD62_4core3ops5arith3DivpE3divBd_
FNDA:0,_RNvXININtNtNtNtCs99Oc0knXXS8_12librefit_lib2db6schema9body_data7columnssR_0pENtB5_6heightINtNtNtCs1FLWZe5rD62_4core3ops5arith3MulpE3mulBd_
FNDA:0,_RNvXININtNtNtNtCs99Oc0knXXS8_12librefit_lib2db6schema9body_data7columnssg_0pENtB5_2idINtNtNtCs1FLWZe5rD62_4core3ops5arith3AddpE3addBd_
FNDA:0,_RNvXININtNtNtNtCs99Oc0knXXS8_12librefit_lib2db6schema9body_data7columnssh_0pENtB5_2idINtNtNtCs1FLWZe5rD62_4core3ops5arith3SubpE3subBd_
FNDA:0,_RNvXININtNtNtNtCs99Oc0knXXS8_12librefit_lib2db6schema9body_data7columnssi_0pENtB5_2idINtNtNtCs1FLWZe5rD62_4core3ops5arith3DivpE3divBd_
FNDA:0,_RNvXININtNtNtNtCs99Oc0knXXS8_12librefit_lib2db6schema9body_data7columnssj_0pENtB5_2idINtNtNtCs1FLWZe5rD62_4core3ops5arith3MulpE3mulBd_
FNDA:0,_RNvXININtNtNtNtCs99Oc0knXXS8_12librefit_lib2db6schema9body_data7columnssx_0pENtB5_3ageINtNtNtCs1FLWZe5rD62_4core3ops5arith3AddpE3addBd_
FNDA:0,_RNvXININtNtNtNtCs99Oc0knXXS8_12librefit_lib2db6schema9body_data7columnssy_0pENtB5_3ageINtNtNtCs1FLWZe5rD62_4core3ops5arith3SubpE3subBd_
FNDA:0,_RNvXININtNtNtNtCs99Oc0knXXS8_12librefit_lib2db6schema9body_data7columnssz_0pENtB5_3ageINtNtNtCs1FLWZe5rD62_4core3ops5arith3DivpE3divBd_
FNDA:0,_RNvMNtNtNtCs99Oc0knXXS8_12librefit_lib2db6schema13food_categoryNtB2_5table4star
FNDA:23,_RNvXs2_NtNtNtCs99Oc0knXXS8_12librefit_lib2db6schema13food_categoryNtB5_5tableNtNtCs7M5B8tusgtg_6diesel13query_builder7AsQuery8as_query
FNDA:23,_RNvXs3_NtNtNtCs99Oc0knXXS8_12librefit_lib2db6schema13food_categoryNtB5_5tableNtNtCs7M5B8tusgtg_6diesel12query_source5Table11all_columns
FNDA:0,_RNvXs3_NtNtNtCs99Oc0knXXS8_12librefit_lib2db6schema13food_categoryNtB5_5tableNtNtCs7M5B8tusgtg_6diesel12query_source5Table11primary_key
FNDA:0,_RNvXs4_NtNtNtCs99Oc0knXXS8_12librefit_lib2db6schema13food_categoryNtB5_5tableNtNtCs7M5B8tusgtg_6diesel12associations8HasTable5table
FNDA:0,_RNvXs5_NtNtNtCs99Oc0knXXS8_12librefit_lib2db6schema13food_categoryNtB5_5tableNtNtNtNtCs7M5B8tusgtg_6diesel13query_builder16update_statement6target16IntoUpdateTarget18into_update_target
FNDA:23,_RNvXs_NtNtNtCs99Oc0knXXS8_12librefit_lib2db6schema13food_categoryNtB4_5tableNtNtCs7M5B8tusgtg_6diesel12query_source11QuerySource11from_clause
FNDA:23,_RNvXs_NtNtNtCs99Oc0knXXS8_12librefit_lib2db6schema13food_categoryNtB4_5tableNtNtCs7M5B8tusgtg_6diesel12query_source11QuerySource17default_selection
FNDA:0,_RNvMNtNtNtCs99Oc0knXXS8_12librefit_lib2db6schema13intake_targetNtB2_5table4star
FNDA:31,_RNvXs2_NtNtNtCs99Oc0knXXS8_12librefit_lib2db6schema13intake_targetNtB5_5tableNtNtCs7M5B8tusgtg_6diesel13query_builder7AsQuery8as_query
FNDA:31,_RNvXs3_NtNtNtCs99Oc0knXXS8_12librefit_lib2db6schema13intake_targetNtB5_5tableNtNtCs7M5B8tusgtg_6diesel12query_source5Table11all_columns
FNDA:0,_RNvXs3_NtNtNtCs99Oc0knXXS8_12librefit_lib2db6schema13intake_targetNtB5_5tableNtNtCs7M5B8tusgtg_6diesel12query_source5Table11primary_key
FNDA:3,_RNvXs4_NtNtNtCs99Oc0knXXS8_12librefit_lib2db6schema13intake_targetNtB5_5tableNtNtCs7M5B8tusgtg_6diesel12associations8HasTable5table
FNDA:0,_RNvXs5_NtNtNtCs99Oc0knXXS8_12librefit_lib2db6schema13intake_targetNtB5_5tableNtNtNtNtCs7M5B8tusgtg_6diesel13query_builder16update_statement6target16IntoUpdateTarget18into_update_target
FNDA:94,_RNvXs_NtNtNtCs99Oc0knXXS8_12librefit_lib2db6schema13intake_targetNtB4_5tableNtNtCs7M5B8tusgtg_6diesel12query_source11QuerySource11from_clause
FNDA:31,_RNvXs_NtNtNtCs99Oc0knXXS8_12librefit_lib2db6schema13intake_targetNtB4_5tableNtNtCs7M5B8tusgtg_6diesel12query_source11QuerySource17default_selection
FNDA:0,_RNvMNtNtNtCs99Oc0knXXS8_12librefit_lib2db6schema6intakeNtB2_5table4star
FNDA:45,_RNvXs2_NtNtNtCs99Oc0knXXS8_12librefit_lib2db6schema6intakeNtB5_5tableNtNtCs7M5B8tusgtg_6diesel13query_builder7AsQuery8as_query
FNDA:45,_RNvXs3_NtNtNtCs99Oc0knXXS8_12librefit_lib2db6schema6intakeNtB5_5tableNtNtCs7M5B8tusgtg_6diesel12query_source5Table11all_columns
FNDA:0,_RNvXs3_NtNtNtCs99Oc0knXXS8_12librefit_lib2db6schema6intakeNtB5_5tableNtNtCs7M5B8tusgtg_6diesel12query_source5Table11primary_key
FNDA:4,_RNvXs4_NtNtNtCs99Oc0knXXS8_12librefit_lib2db6schema6intakeNtB5_5tableNtNtCs7M5B8tusgtg_6diesel12associations8HasTable5table
FNDA:0,_RNvXs5_NtNtNtCs99Oc0knXXS8_12librefit_lib2db6schema6intakeNtB5_5tableNtNtNtNtCs7M5B8tusgtg_6diesel13query_builder16update_statement6target16IntoUpdateTarget18into_update_target
FNDA:187,_RNvXs_NtNtNtCs99Oc0knXXS8_12librefit_lib2db6schema6intakeNtB4_5tableNtNtCs7M5B8tusgtg_6diesel12query_source11QuerySource11from_clause
FNDA:45,_RNvXs_NtNtNtCs99Oc0knXXS8_12librefit_lib2db6schema6intakeNtB4_5tableNtNtCs7M5B8tusgtg_6diesel12query_source11QuerySource17default_selection
FNDA:0,_RNvMNtNtNtCs99Oc0knXXS8_12librefit_lib2db6schema13weight_targetNtB2_5table4star
FNDA:29,_RNvXs2_NtNtNtCs99Oc0knXXS8_12librefit_lib2db6schema13weight_targetNtB5_5tableNtNtCs7M5B8tusgtg_6diesel13query_builder7AsQuery8as_query
FNDA:29,_RNvXs3_NtNtNtCs99Oc0knXXS8_12librefit_lib2db6schema13weight_targetNtB5_5tableNtNtCs7M5B8tusgtg_6diesel12query_source5Table11all_columns
FNDA:0,_RNvXs3_NtNtNtCs99Oc0knXXS8_12librefit_lib2db6schema13weight_targetNtB5_5tableNtNtCs7M5B8tusgtg_6diesel12query_source5Table11primary_key
FNDA:3,_RNvXs4_NtNtNtCs99Oc0knXXS8_12librefit_lib2db6schema13weight_targetNtB5_5tableNtNtCs7M5B8tusgtg_6diesel12associations8HasTable5table
FNDA:0,_RNvXs5_NtNtNtCs99Oc0knXXS8_12librefit_lib2db6schema13weight_targetNtB5_5tableNtNtNtNtCs7M5B8tusgtg_6diesel13query_builder16update_statement6target16IntoUpdateTarget18into_update_target
FNDA:92,_RNvXs_NtNtNtCs99Oc0knXXS8_12librefit_lib2db6schema13weight_targetNtB4_5tableNtNtCs7M5B8tusgtg_6diesel12query_source11QuerySource11from_clause
FNDA:29,_RNvXs_NtNtNtCs99Oc0knXXS8_12librefit_lib2db6schema13weight_targetNtB4_5tableNtNtCs7M5B8tusgtg_6diesel12query_source11QuerySource17default_selection
FNDA:0,_RNvMNtNtNtCs99Oc0knXXS8_12librefit_lib2db6schema14weight_trackerNtB2_5table4star
FNDA:49,_RNvXs2_NtNtNtCs99Oc0knXXS8_12librefit_lib2db6schema14weight_trackerNtB5_5tableNtNtCs7M5B8tusgtg_6diesel13query_builder7AsQuery8as_query
FNDA:49,_RNvXs3_NtNtNtCs99Oc0knXXS8_12librefit_lib2db6schema14weight_trackerNtB5_5tableNtNtCs7M5B8tusgtg_6diesel12query_source5Table11all_columns
FNDA:0,_RNvXs3_NtNtNtCs99Oc0knXXS8_12librefit_lib2db6schema14weight_trackerNtB5_5tableNtNtCs7M5B8tusgtg_6diesel12query_source5Table11primary_key
FNDA:5,_RNvXs4_NtNtNtCs99Oc0knXXS8_12librefit_lib2db6schema14weight_trackerNtB5_5tableNtNtCs7M5B8tusgtg_6diesel12associations8HasTable5table
FNDA:0,_RNvXs5_NtNtNtCs99Oc0knXXS8_12librefit_lib2db6schema14weight_trackerNtB5_5tableNtNtNtNtCs7M5B8tusgtg_6diesel13query_builder16update_statement6target16IntoUpdateTarget18into_update_target
FNDA:146,_RNvXs_NtNtNtCs99Oc0knXXS8_12librefit_lib2db6schema14weight_trackerNtB4_5tableNtNtCs7M5B8tusgtg_6diesel12query_source11QuerySource11from_clause
FNDA:49,_RNvXs_NtNtNtCs99Oc0knXXS8_12librefit_lib2db6schema14weight_trackerNtB4_5tableNtNtCs7M5B8tusgtg_6diesel12query_source11QuerySource17default_selection
FNDA:0,_RNvMNtNtNtCs99Oc0knXXS8_12librefit_lib2db6schema9body_dataNtB2_5table4star
FNDA:33,_RNvXs2_NtNtNtCs99Oc0knXXS8_12librefit_lib2db6schema9body_dataNtB5_5tableNtNtCs7M5B8tusgtg_6diesel13query_builder7AsQuery8as_query
FNDA:33,_RNvXs3_NtNtNtCs99Oc0knXXS8_12librefit_lib2db6schema9body_dataNtB5_5tableNtNtCs7M5B8tusgtg_6diesel12query_source5Table11all_columns
FNDA:0,_RNvXs3_NtNtNtCs99Oc0knXXS8_12librefit_lib2db6schema9body_dataNtB5_5tableNtNtCs7M5B8tusgtg_6diesel12query_source5Table11primary_key
FNDA:6,_RNvXs4_NtNtNtCs99Oc0knXXS8_12librefit_lib2db6schema9body_dataNtB5_5tableNtNtCs7M5B8tusgtg_6diesel12associations8HasTable5table
FNDA:6,_RNvXs5_NtNtNtCs99Oc0knXXS8_12librefit_lib2db6schema9body_dataNtB5_5tableNtNtNtNtCs7M5B8tusgtg_6diesel13query_builder16update_statement6target16IntoUpdateTarget18into_update_target
FNDA:71,_RNvXs_NtNtNtCs99Oc0knXXS8_12librefit_lib2db6schema9body_dataNtB4_5tableNtNtCs7M5B8tusgtg_6diesel12query_source11QuerySource11from_clause
FNDA:33,_RNvXs_NtNtNtCs99Oc0knXXS8_12librefit_lib2db6schema9body_dataNtB4_5tableNtNtCs7M5B8tusgtg_6diesel12query_source11QuerySource17default_selection
FNDA:0,_RNvMNtNtNtCs99Oc0knXXS8_12librefit_lib2db6schema10libre_userNtB2_5table4star
FNDA:45,_RNvXs2_NtNtNtCs99Oc0knXXS8_12librefit_lib2db6schema10libre_userNtB5_5tableNtNtCs7M5B8tusgtg_6diesel13query_builder7AsQuery8as_query
FNDA:45,_RNvXs3_NtNtNtCs99Oc0knXXS8_12librefit_lib2db6schema10libre_userNtB5_5tableNtNtCs7M5B8tusgtg_6diesel12query_source5Table11all_columns
FNDA:0,_RNvXs3_NtNtNtCs99Oc0knXXS8_12librefit_lib2db6schema10libre_userNtB5_5tableNtNtCs7M5B8tusgtg_6diesel12query_source5Table11primary_key
FNDA:4,_RNvXs4_NtNtNtCs99Oc0knXXS8_12librefit_lib2db6schema10libre_userNtB5_5tableNtNtCs7M5B8tusgtg_6diesel12associations8HasTable5table
FNDA:4,_RNvXs5_NtNtNtCs99Oc0knXXS8_12librefit_lib2db6schema10libre_userNtB5_5tableNtNtNtNtCs7M5B8tusgtg_6diesel13query_builder16update_statement6target16IntoUpdateTarget18into_update_target
FNDA:95,_RNvXs_NtNtNtCs99Oc0knXXS8_12librefit_lib2db6schema10libre_userNtB4_5tableNtNtCs7M5B8tusgtg_6diesel12query_source11QuerySource11from_clause
FNDA:45,_RNvXs_NtNtNtCs99Oc0knXXS8_12librefit_lib2db6schema10libre_userNtB4_5tableNtNtCs7M5B8tusgtg_6diesel12query_source11QuerySource17default_selection
FNDA:0,_RNvMNtNtNtCskxb0fiIX3sM_12librefit_lib2db6schema10libre_userNtB2_5table4star
FNDA:0,_RNvMNtNtNtCskxb0fiIX3sM_12librefit_lib2db6schema13food_categoryNtB2_5table4star
FNDA:0,_RNvMNtNtNtCskxb0fiIX3sM_12librefit_lib2db6schema13intake_targetNtB2_5table4star
FNDA:0,_RNvMNtNtNtCskxb0fiIX3sM_12librefit_lib2db6schema13weight_targetNtB2_5table4star
FNDA:0,_RNvMNtNtNtCskxb0fiIX3sM_12librefit_lib2db6schema14weight_trackerNtB2_5table4star
FNDA:0,_RNvMNtNtNtCskxb0fiIX3sM_12librefit_lib2db6schema6intakeNtB2_5table4star
FNDA:0,_RNvMNtNtNtCskxb0fiIX3sM_12librefit_lib2db6schema9body_dataNtB2_5table4star
FNDA:0,_RNvXININtNtNtCskxb0fiIX3sM_12librefit_lib2db6schema10libre_users0_0pENtB5_5tableINtNtCs7M5B8tusgtg_6diesel13query_builder13QueryFragmentpE8walk_astBb_
FNDA:0,_RNvXININtNtNtCskxb0fiIX3sM_12librefit_lib2db6schema10libre_usersa_0ppENtB5_5tableINtNtNtNtCs7M5B8tusgtg_6diesel12query_source8aliasing18field_alias_mapper48FieldAliasMapperAssociatedTypesDisjointnessTrickB16_ppE3mapBb_
FNDA:0,_RNvXININtNtNtCskxb0fiIX3sM_12librefit_lib2db6schema10libre_usersc_0pppENtB5_5tableINtNtNtCs7M5B8tusgtg_6diesel12query_source5joins6JoinToINtB1l_4JoinpppEE11join_targetBb_
FNDA:0,_RNvXININtNtNtCskxb0fiIX3sM_12librefit_lib2db6schema10libre_usersd_0ppENtB5_5tableINtNtNtCs7M5B8tusgtg_6diesel12query_source5joins6JoinToINtB1k_6JoinOnppEE11join_targetBb_
FNDA:0,_RNvXININtNtNtCskxb0fiIX3sM_12librefit_lib2db6schema10libre_userse_0ppppppppENtB5_5tableINtNtNtCs7M5B8tusgtg_6diesel12query_source5joins6JoinToINtNtNtB1u_13query_builder16select_statement15SelectStatementINtNtB2l_11from_clause10FromClausepEpppppppEE11join_targetBb_
FNDA:0,_RNvXININtNtNtCskxb0fiIX3sM_12librefit_lib2db6schema10libre_usersf_0pppENtB5_5tableINtNtNtCs7M5B8tusgtg_6diesel12query_source5joins6JoinToINtNtNtNtB1p_13query_builder16select_statement5boxed20BoxedSelectStatementINtNtB2i_11from_clause10FromClausepEppEE11join_targetBb_
FNDA:0,_RNvXININtNtNtCskxb0fiIX3sM_12librefit_lib2db6schema10libre_usersg_0pENtB5_5tableINtNtNtCs7M5B8tusgtg_6diesel12query_source5joins6JoinToINtNtNtB1l_8aliasing5alias5AliaspEE11join_targetBb_
FNDA:0,_RNvXININtNtNtCskxb0fiIX3sM_12librefit_lib2db6schema10libre_usersh_0pENtB5_5tableINtNtCs7M5B8tusgtg_6diesel10insertable10InsertablepE6valuesBb_
FNDA:0,_RNvXININtNtNtCskxb0fiIX3sM_12librefit_lib2db6schema10libre_usersi_0pERNtB5_5tableINtNtCs7M5B8tusgtg_6diesel10insertable10InsertablepE6valuesBb_
FNDA:0,_RNvXININtNtNtCskxb0fiIX3sM_12librefit_lib2db6schema13food_categorys0_0pENtB5_5tableINtNtCs7M5B8tusgtg_6diesel13query_builder13QueryFragmentpE8walk_astBb_
FNDA:0,_RNvXININtNtNtCskxb0fiIX3sM_12librefit_lib2db6schema13food_categorysa_0ppENtB5_5tableINtNtNtNtCs7M5B8tusgtg_6diesel12query_source8aliasing18field_alias_mapper48FieldAliasMapperAssociatedTypesDisjointnessTrickB19_ppE3mapBb_
FNDA:0,_RNvXININtNtNtCskxb0fiIX3sM_12librefit_lib2db6schema13food_categorysc_0pppENtB5_5tableINtNtNtCs7M5B8tusgtg_6diesel12query_source5joins6JoinToINtB1o_4JoinpppEE11join_targetBb_
FNDA:0,_RNvXININtNtNtCskxb0fiIX3sM_12librefit_lib2db6schema13food_categorysd_0ppENtB5_5tableINtNtNtCs7M5B8tusgtg_6diesel12query_source5joins6JoinToINtB1n_6JoinOnppEE11join_targetBb_
FNDA:0,_RNvXININtNtNtCskxb0fiIX3sM_12librefit_lib2db6schema13food_categoryse_0ppppppppENtB5_5tableINtNtNtCs7M5B8tusgtg_6diesel12query_source5joins6JoinToINtNtNtB1x_13query_builder16select_statement15SelectStatementINtNtB2o_11from_clause10FromClausepEpppppppEE11join_targetBb_
FNDA:0,_RNvXININtNtNtCskxb0fiIX3sM_12librefit_lib2db6schema13food_categorysf_0pppENtB5_5tableINtNtNtCs7M5B8tusgtg_6diesel12query_source5joins6JoinToINtNtNtNtB1s_13query_builder16select_statement5boxed20BoxedSelectStatementINtNtB2l_11from_clause10FromClausepEppEE11join_targetBb_
FNDA:0,_RNvXININtNtNtCskxb0fiIX3sM_12librefit_lib2db6schema13food_categorysg_0pENtB5_5tableINtNtNtCs7M5B8tusgtg_6diesel12query_source5joins6JoinToINtNtNtB1o_8aliasing5alias5AliaspEE11join_targetBb_
FNDA:0,_RNvXININtNtNtCskxb0fiIX3sM_12librefit_lib2db6schema13food_categorysh_0pENtB5_5tableINtNtCs7M5B8tusgtg_6diesel10insertable10InsertablepE6valuesBb_
FNDA:0,_RNvXININtNtNtCskxb0fiIX3sM_12librefit_lib2db6schema13food_categorysi_0pERNtB5_5tableINtNtCs7M5B8tusgtg_6diesel10insertable10InsertablepE6valuesBb_
FNDA:0,_RNvXININtNtNtCskxb0fiIX3sM_12librefit_lib2db6schema13intake_targets0_0pENtB5_5tableINtNtCs7M5B8tusgtg_6diesel13query_builder13QueryFragmentpE8walk_astBb_
FNDA:0,_RNvXININtNtNtCskxb0fiIX3sM_12librefit_lib2db6schema13intake_targetsa_0ppENtB5_5tableINtNtNtNtCs7M5B8tusgtg_6diesel12query_source8aliasing18field_alias_mapper48FieldAliasMapperAssociatedTypesDisjointnessTrickB19_ppE3mapBb_
FNDA:0,_RNvXININtNtNtCskxb0fiIX3sM_12librefit_lib2db6schema13intake_targetsc_0pppENtB5_5tableINtNtNtCs7M5B8tusgtg_6diesel12query_source5joins6JoinToINtB1o_4JoinpppEE11join_targetBb_
FNDA:0,_RNvXININtNtNtCskxb0fiIX3sM_12librefit_lib2db6schema13intake_targetsd_0ppENtB5_5tableINtNtNtCs7M5B8tusgtg_6diesel12query_source5joins6JoinToINtB1n_6JoinOnppEE11join_targetBb_
FNDA:0,_RNvXININtNtNtCskxb0fiIX3sM_12librefit_lib2db6schema13intake_targetse_0ppppppppENtB5_5tableINtNtNtCs7M5B8tusgtg_6diesel12query_source5joins6JoinToINtNtNtB1x_13query_builder16select_statement15SelectStatementINtNtB2o_11from_clause10FromClausepEpppppppEE11join_targetBb_
FNDA:0,_RNvXININtNtNtCskxb0fiIX3sM_12librefit_lib2db6schema13intake_targetsf_0pppENtB5_5tableINtNtNtCs7M5B8tusgtg_6diesel12query_source5joins6JoinToINtNtNtNtB1s_13query_builder16select_statement5boxed20BoxedSelectStatementINtNtB2l_11from_clause10FromClausepEppEE11join_targetBb_
FNDA:0,_RNvXININtNtNtCskxb0fiIX3sM_12librefit_lib2db6schema13intake_targetsg_0pENtB5_5tableINtNtNtCs7M5B8tusgtg_6diesel12query_source5joins6JoinToINtNtNtB1o_8aliasing5alias5AliaspEE11join_targetBb_
FNDA:0,_RNvXININtNtNtCskxb0fiIX3sM_12librefit_lib2db6schema13intake_targetsh_0pENtB5_5tableINtNtCs7M5B8tusgtg_6diesel10insertable10InsertablepE6valuesBb_
FNDA:0,_RNvXININtNtNtCskxb0fiIX3sM_12librefit_lib2db6schema13intake_targetsi_0pERNtB5_5tableINtNtCs7M5B8tusgtg_6diesel10insertable10InsertablepE6valuesBb_
FNDA:0,_RNvXININtNtNtCskxb0fiIX3sM_12librefit_lib2db6schema13weight_targets0_0pENtB5_5tableINtNtCs7M5B8tusgtg_6diesel13query_builder13QueryFragmentpE8walk_astBb_
FNDA:0,_RNvXININtNtNtCskxb0fiIX3sM_12librefit_lib2db6schema13weight_targetsa_0ppENtB5_5tableINtNtNtNtCs7M5B8tusgtg_6diesel12query_source8aliasing18field_alias_mapper48FieldAliasMapperAssociatedTypesDisjointnessTrickB19_ppE3mapBb_
FNDA:0,_RNvXININtNtNtCskxb0fiIX3sM_12librefit_lib2db6schema13weight_targetsc_0pppENtB5_5tableINtNtNtCs7M5B8tusgtg_6diesel12query_source5joins6JoinToINtB1o_4JoinpppEE11join_targetBb_
FNDA:0,_RNvXININtNtNtCskxb0fiIX3sM_12librefit_lib2db6schema13weight_targetsd_0ppENtB5_5tableINtNtNtCs7M5B8tusgtg_6diesel12query_source5joins6JoinToINtB1n_6JoinOnppEE11join_targetBb_
FNDA:0,_RNvXININtNtNtCskxb0fiIX3sM_12librefit_lib2db6schema13weight_targetse_0ppppppppENtB5_5tableINtNtNtCs7M5B8tusgtg_6diesel12query_source5joins6JoinToINtNtNtB1x_13query_builder16select_statement15SelectStatementINtNtB2o_11from_clause10FromClausepEpppppppEE11join_targetBb_
FNDA:0,_RNvXININtNtNtCskxb0fiIX3sM_12librefit_lib2db6schema13weight_targetsf_0pppENtB5_5tableINtNtNtCs7M5B8tusgtg_6diesel12query_source5joins6JoinToINtNtNtNtB1s_13query_builder16select_statement5boxed20BoxedSelectStatementINtNtB2l_11from_clause10FromClausepEppEE11join_targetBb_
FNDA:0,_RNvXININtNtNtCskxb0fiIX3sM_12librefit_lib2db6schema13weight_targetsg_0pENtB5_5tableINtNtNtCs7M5B8tusgtg_6diesel12query_source5joins6JoinToINtNtNtB1o_8aliasing5alias5AliaspEE11join_targetBb_
FNDA:0,_RNvXININtNtNtCskxb0fiIX3sM_12librefit_lib2db6schema13weight_targetsh_0pENtB5_5tableINtNtCs7M5B8tusgtg_6diesel10insertable10InsertablepE6valuesBb_
FNDA:0,_RNvXININtNtNtCskxb0fiIX3sM_12librefit_lib2db6schema13weight_targetsi_0pERNtB5_5tableINtNtCs7M5B8tusgtg_6diesel10insertable10InsertablepE6valuesBb_
FNDA:0,_RNvXININtNtNtCskxb0fiIX3sM_12librefit_lib2db6schema14weight_trackers0_0pENtB5_5tableINtNtCs7M5B8tusgtg_6diesel13query_builder13QueryFragmentpE8walk_astBb_
FNDA:0,_RNvXININtNtNtCskxb0fiIX3sM_12librefit_lib2db6schema14weight_trackersa_0ppENtB5_5tableINtNtNtNtCs7M5B8tusgtg_6diesel12query_source8aliasing18field_alias_mapper48FieldAliasMapperAssociatedTypesDisjointnessTrickB1a_ppE3mapBb_
FNDA:0,_RNvXININtNtNtCskxb0fiIX3sM_12librefit_lib2db6schema14weight_trackersc_0pppENtB5_5tableINtNtNtCs7M5B8tusgtg_6diesel12query_source5joins6JoinToINtB1p_4JoinpppEE11join_targetBb_
FNDA:0,_RNvXININtNtNtCskxb0fiIX3sM_12librefit_lib2db6schema14weight_trackersd_0ppENtB5_5tableINtNtNtCs7M5B8tusgtg_6diesel12query_source5joins6JoinToINtB1o_6JoinOnppEE11join_targetBb_
FNDA:0,_RNvXININtNtNtCskxb0fiIX3sM_12librefit_lib2db6schema14weight_trackerse_0ppppppppENtB5_5tableINtNtNtCs7M5B8tusgtg_6diesel12query_source5joins6JoinToINtNtNtB1y_13query_builder16select_statement15SelectStatementINtNtB2p_11from_clause10FromClausepEpppppppEE11join_targetBb_
FNDA:0,_RNvXININtNtNtCskxb0fiIX3sM_12librefit_lib2db6schema14weight_trackersf_0pppENtB5_5tableINtNtNtCs7M5B8tusgtg_6diesel12query_source5joins6JoinToINtNtNtNtB1t_13query_builder16select_statement5boxed20BoxedSelectStatementINtNtB2m_11from_clause10FromClausepEppEE11join_targetBb_
FNDA:0,_RNvXININtNtNtCskxb0fiIX3sM_12librefit_lib2db6schema14weight_trackersg_0pENtB5_5tableINtNtNtCs7M5B8tusgtg_6diesel12query_source5joins6JoinToINtNtNtB1p_8aliasing5alias5AliaspEE11join_targetBb_
FNDA:0,_RNvXININtNtNtCskxb0fiIX3sM_12librefit_lib2db6schema14weight_trackersh_0pENtB5_5tableINtNtCs7M5B8tusgtg_6diesel10insertable10InsertablepE6valuesBb_
FNDA:0,_RNvXININtNtNtCskxb0fiIX3sM_12librefit_lib2db6schema14weight_trackersi_0pERNtB5_5tableINtNtCs7M5B8tusgtg_6diesel10insertable10InsertablepE6valuesBb_
FNDA:0,_RNvXININtNtNtCskxb0fiIX3sM_12librefit_lib2db6schema6intakes0_0pENtB5_5tableINtNtCs7M5B8tusgtg_6diesel13query_builder13QueryFragmentpE8walk_astBb_
FNDA:0,_RNvXININtNtNtCskxb0fiIX3sM_12librefit_lib2db6schema6intakesa_0ppENtB5_5tableINtNtNtNtCs7M5B8tusgtg_6diesel12query_source8aliasing18field_alias_mapper48FieldAliasMapperAssociatedTypesDisjointnessTrickB11_ppE3mapBb_
FNDA:0,_RNvXININtNtNtCskxb0fiIX3sM_12librefit_lib2db6schema6intakesc_0pppENtB5_5tableINtNtNtCs7M5B8tusgtg_6diesel12query_source5joins6JoinToINtB1g_4JoinpppEE11join_targetBb_
FNDA:0,_RNvXININtNtNtCskxb0fiIX3sM_12librefit_lib2db6schema6intakesd_0ppENtB5_5tableINtNtNtCs7M5B8tusgtg_6diesel12query_source5joins6JoinToINtB1f_6JoinOnppEE11join_targetBb_
FNDA:0,_RNvXININtNtNtCskxb0fiIX3sM_12librefit_lib2db6schema6intakese_0ppppppppENtB5_5tableINtNtNtCs7M5B8tusgtg_6diesel12query_source5joins6JoinToINtNtNtB1p_13query_builder16select_statement15SelectStatementINtNtB2g_11from_clause10FromClausepEpppppppEE11join_targetBb_
FNDA:0,_RNvXININtNtNtCskxb0fiIX3sM_12librefit_lib2db6schema6intakesf_0pppENtB5_5tableINtNtNtCs7M5B8tusgtg_6diesel12query_source5joins6JoinToINtNtNtNtB1k_13query_builder16select_statement5boxed20BoxedSelectStatementINtNtB2d_11from_clause10FromClausepEppEE11join_targetBb_
FNDA:0,_RNvXININtNtNtCskxb0fiIX3sM_12librefit_lib2db6schema6intakesg_0pENtB5_5tableINtNtNtCs7M5B8tusgtg_6diesel12query_source5joins6JoinToINtNtNtB1g_8aliasing5alias5AliaspEE11join_targetBb_
FNDA:0,_RNvXININtNtNtCskxb0fiIX3sM_12librefit_lib2db6schema6intakesh_0pENtB5_5tableINtNtCs7M5B8tusgtg_6diesel10insertable10InsertablepE6valuesBb_
FNDA:0,_RNvXININtNtNtCskxb0fiIX3sM_12librefit_lib2db6schema6intakesi_0pERNtB5_5tableINtNtCs7M5B8tusgtg_6diesel10insertable10InsertablepE6valuesBb_
FNDA:0,_RNvXININtNtNtCskxb0fiIX3sM_12librefit_lib2db6schema9body_datas0_0pENtB5_5tableINtNtCs7M5B8tusgtg_6diesel13query_builder13QueryFragmentpE8walk_astBb_
FNDA:0,_RNvXININtNtNtCskxb0fiIX3sM_12librefit_lib2db6schema9body_datasa_0ppENtB5_5tableINtNtNtNtCs7M5B8tusgtg_6diesel12query_source8aliasing18field_alias_mapper48FieldAliasMapperAssociatedTypesDisjointnessTrickB14_ppE3mapBb_
FNDA:0,_RNvXININtNtNtCskxb0fiIX3sM_12librefit_lib2db6schema9body_datasc_0pppENtB5_5tableINtNtNtCs7M5B8tusgtg_6diesel12query_source5joins6JoinToINtB1j_4JoinpppEE11join_targetBb_
FNDA:0,_RNvXININtNtNtCskxb0fiIX3sM_12librefit_lib2db6schema9body_datasd_0ppENtB5_5tableINtNtNtCs7M5B8tusgtg_6diesel12query_source5joins6JoinToINtB1i_6JoinOnppEE11join_targetBb_
FNDA:0,_RNvXININtNtNtCskxb0fiIX3sM_12librefit_lib2db6schema9body_datase_0ppppppppENtB5_5tableINtNtNtCs7M5B8tusgtg_6diesel12query_source5joins6JoinToINtNtNtB1s_13query_builder16select_statement15SelectStatementINtNtB2j_11from_clause10FromClausepEpppppppEE11join_targetBb_
FNDA:0,_RNvXININtNtNtCskxb0fiIX3sM_12librefit_lib2db6schema9body_datasf_0pppENtB5_5tableINtNtNtCs7M5B8tusgtg_6diesel12query_source5joins6JoinToINtNtNtNtB1n_13query_builder16select_statement5boxed20BoxedSelectStatementINtNtB2g_11from_clause10FromClausepEppEE11join_targetBb_
FNDA:0,_RNvXININtNtNtCskxb0fiIX3sM_12librefit_lib2db6schema9body_datasg_0pENtB5_5tableINtNtNtCs7M5B8tusgtg_6diesel12query_source5joins6JoinToINtNtNtB1j_8aliasing5alias5AliaspEE11join_targetBb_
FNDA:0,_RNvXININtNtNtCskxb0fiIX3sM_12librefit_lib2db6schema9body_datash_0pENtB5_5tableINtNtCs7M5B8tusgtg_6diesel10insertable10InsertablepE6valuesBb_
FNDA:0,_RNvXININtNtNtCskxb0fiIX3sM_12librefit_lib2db6schema9body_datasi_0pERNtB5_5tableINtNtCs7M5B8tusgtg_6diesel10insertable10InsertablepE6valuesBb_
FNDA:0,_RNvXININtNtNtNtCskxb0fiIX3sM_12librefit_lib2db6schema10libre_user7columnss0_0pENtB5_4starINtNtCs7M5B8tusgtg_6diesel13query_builder13QueryFragmentpE8walk_astBd_
FNDA:0,_RNvXININtNtNtNtCskxb0fiIX3sM_12librefit_lib2db6schema10libre_user7columnssg_0pENtB5_2idINtNtNtCs1FLWZe5rD62_4core3ops5arith3AddpE3addBd_
FNDA:0,_RNvXININtNtNtNtCskxb0fiIX3sM_12librefit_lib2db6schema10libre_user7columnssh_0pENtB5_2idINtNtNtCs1FLWZe5rD62_4core3ops5arith3SubpE3subBd_
FNDA:0,_RNvXININtNtNtNtCskxb0fiIX3sM_12librefit_lib2db6schema10libre_user7columnssi_0pENtB5_2idINtNtNtCs1FLWZe5rD62_4core3ops5arith3DivpE3divBd_
FNDA:0,_RNvXININtNtNtNtCskxb0fiIX3sM_12librefit_lib2db6schema10libre_user7columnssj_0pENtB5_2idINtNtNtCs1FLWZe5rD62_4core3ops5arith3MulpE3mulBd_
FNDA:0,_RNvXININtNtNtNtCskxb0fiIX3sM_12librefit_lib2db6schema13food_category7columnss0_0pENtB5_4starINtNtCs7M5B8tusgtg_6diesel13query_builder13QueryFragmentpE8walk_astBd_
FNDA:0,_RNvXININtNtNtNtCskxb0fiIX3sM_12librefit_lib2db6schema13intake_target7columnss0_0pENtB5_4starINtNtCs7M5B8tusgtg_6diesel13query_builder13QueryFragmentpE8walk_astBd_
FNDA:0,_RNvXININtNtNtNtCskxb0fiIX3sM_12librefit_lib2db6schema13intake_target7columnss10_0pENtB5_16maximum_caloriesINtNtNtCs1FLWZe5rD62_4core3ops5arith3MulpE3mulBd_
FNDA:0,_RNvXININtNtNtNtCskxb0fiIX3sM_12librefit_lib2db6schema13intake_target7columnss1r_0pENtB5_15target_caloriesINtNtNtCs1FLWZe5rD62_4core3ops5arith3AddpE3addBd_
FNDA:0,_RNvXININtNtNtNtCskxb0fiIX3sM_12librefit_lib2db6schema13intake_target7columnss1s_0pENtB5_15target_caloriesINtNtNtCs1FLWZe5rD62_4core3ops5arith3SubpE3subBd_
FNDA:0,_RNvXININtNtNtNtCskxb0fiIX3sM_12librefit_lib2db6schema13intake_target7columnss1t_0pENtB5_15target_caloriesINtNtNtCs1FLWZe5rD62_4core3ops5arith3DivpE3divBd_
FNDA:0,_RNvXININtNtNtNtCskxb0fiIX3sM_12librefit_lib2db6schema13intake_target7columnss1u_0pENtB5_15target_caloriesINtNtNtCs1FLWZe5rD62_4core3ops5arith3MulpE3mulBd_
FNDA:0,_RNvXININtNtNtNtCskxb0fiIX3sM_12librefit_lib2db6schema13intake_target7columnssX_0pENtB5_16maximum_caloriesINtNtNtCs1FLWZe5rD62_4core3ops5arith3AddpE3addBd_
FNDA:0,_RNvXININtNtNtNtCskxb0fiIX3sM_12librefit_lib2db6schema13intake_target7columnssY_0pENtB5_16maximum_caloriesINtNtNtCs1FLWZe5rD62_4core3ops5arith3SubpE3subBd_
FNDA:0,_RNvXININtNtNtNtCskxb0fiIX3sM_12librefit_lib2db6schema13intake_target7columnssZ_0pENtB5_16maximum_caloriesINtNtNtCs1FLWZe5rD62_4core3ops5arith3DivpE3divBd_
FNDA:0,_RNvXININtNtNtNtCskxb0fiIX3sM_12librefit_lib2db6schema13intake_target7columnssg_0pENtB5_2idINtNtNtCs1FLWZe5rD62_4core3ops5arith3AddpE3addBd_
FNDA:0,_RNvXININtNtNtNtCskxb0fiIX3sM_12librefit_lib2db6schema13intake_target7columnssh_0pENtB5_2idINtNtNtCs1FLWZe5rD62_4core3ops5arith3SubpE3subBd_
FNDA:0,_RNvXININtNtNtNtCskxb0fiIX3sM_12librefit_lib2db6schema13intake_target7columnssi_0pENtB5_2idINtNtNtCs1FLWZe5rD62_4core3ops5arith3DivpE3divBd_
FNDA:0,_RNvXININtNtNtNtCskxb0fiIX3sM_12librefit_lib2db6schema13intake_target7columnssj_0pENtB5_2idINtNtNtCs1FLWZe5rD62_4core3ops5arith3MulpE3mulBd_
FNDA:0,_RNvXININtNtNtNtCskxb0fiIX3sM_12librefit_lib2db6schema13weight_target7columnss0_0pENtB5_4starINtNtCs7M5B8tusgtg_6diesel13query_builder13QueryFragmentpE8walk_astBd_
FNDA:0,_RNvXININtNtNtNtCskxb0fiIX3sM_12librefit_lib2db6schema13weight_target7columnss10_0pENtB5_14initial_weightINtNtNtCs1FLWZe5rD62_4core3ops5arith3MulpE3mulBd_
FNDA:0,_RNvXININtNtNtNtCskxb0fiIX3sM_12librefit_lib2db6schema13weight_target7columnss1r_0pENtB5_13target_weightINtNtNtCs1FLWZe5rD62_4core3ops5arith3AddpE3addBd_
FNDA:0,_RNvXININtNtNtNtCskxb0fiIX3sM_12librefit_lib2db6schema13weight_target7columnss1s_0pENtB5_13target_weightINtNtNtCs1FLWZe5rD62_4core3ops5arith3SubpE3subBd_
FNDA:0,_RNvXININtNtNtNtCskxb0fiIX3sM_12librefit_lib2db6schema13weight_target7columnss1t_0pENtB5_13target_weightINtNtNtCs1FLWZe5rD62_4core3ops5arith3DivpE3divBd_
FNDA:0,_RNvXININtNtNtNtCskxb0fiIX3sM_12librefit_lib2db6schema13weight_target7columnss1u_0pENtB5_13target_weightINtNtNtCs1FLWZe5rD62_4core3ops5arith3MulpE3mulBd_
FNDA:0,_RNvXININtNtNtNtCskxb0fiIX3sM_12librefit_lib2db6schema13weight_target7columnssX_0pENtB5_14initial_weightINtNtNtCs1FLWZe5rD62_4core3ops5arith3AddpE3addBd_
FNDA:0,_RNvXININtNtNtNtCskxb0fiIX3sM_12librefit_lib2db6schema13weight_target7columnssY_0pENtB5_14initial_weightINtNtNtCs1FLWZe5rD62_4core3ops5arith3SubpE3subBd_
FNDA:0,_RNvXININtNtNtNtCskxb0fiIX3sM_12librefit_lib2db6schema13weight_target7columnssZ_0pENtB5_14initial_weightINtNtNtCs1FLWZe5rD62_4core3ops5arith3DivpE3divBd_
FNDA:0,_RNvXININtNtNtNtCskxb0fiIX3sM_12librefit_lib2db6schema13weight_target7columnssg_0pENtB5_2idINtNtNtCs1FLWZe5rD62_4core3ops5arith3AddpE3addBd_
FNDA:0,_RNvXININtNtNtNtCskxb0fiIX3sM_12librefit_lib2db6schema13weight_target7columnssh_0pENtB5_2idINtNtNtCs1FLWZe5rD62_4core3ops5arith3SubpE3subBd_
FNDA:0,_RNvXININtNtNtNtCskxb0fiIX3sM_12librefit_lib2db6schema13weight_target7columnssi_0pENtB5_2idINtNtNtCs1FLWZe5rD62_4core3ops5arith3DivpE3divBd_
FNDA:0,_RNvXININtNtNtNtCskxb0fiIX3sM_12librefit_lib2db6schema13weight_target7columnssj_0pENtB5_2idINtNtNtCs1FLWZe5rD62_4core3ops5arith3MulpE3mulBd_
FNDA:0,_RNvXININtNtNtNtCskxb0fiIX3sM_12librefit_lib2db6schema14weight_tracker7columnss0_0pENtB5_4starINtNtCs7M5B8tusgtg_6diesel13query_builder13QueryFragmentpE8walk_astBd_
FNDA:0,_RNvXININtNtNtNtCskxb0fiIX3sM_12librefit_lib2db6schema14weight_tracker7columnssK_0pENtB5_6amountINtNtNtCs1FLWZe5rD62_4core3ops5arith3AddpE3addBd_
FNDA:0,_RNvXININtNtNtNtCskxb0fiIX3sM_12librefit_lib2db6schema14weight_tracker7columnssL_0pENtB5_6amountINtNtNtCs1FLWZe5rD62_4core3ops5arith3SubpE3subBd_
FNDA:0,_RNvXININtNtNtNtCskxb0fiIX3sM_12librefit_lib2db6schema14weight_tracker7columnssM_0pENtB5_6amountINtNtNtCs1FLWZe5rD62_4core3ops5arith3DivpE3divBd_
FNDA:0,_RNvXININtNtNtNtCskxb0fiIX3sM_12librefit_lib2db6schema14weight_tracker7columnssN_0pENtB5_6amountINtNtNtCs1FLWZe5rD62_4core3ops5arith3MulpE3mulBd_
FNDA:0,_RNvXININtNtNtNtCskxb0fiIX3sM_12librefit_lib2db6schema14weight_tracker7columnssg_0pENtB5_2idINtNtNtCs1FLWZe5rD62_4core3ops5arith3AddpE3addBd_
FNDA:0,_RNvXININtNtNtNtCskxb0fiIX3sM_12librefit_lib2db6schema14weight_tracker7columnssh_0pENtB5_2idINtNtNtCs1FLWZe5rD62_4core3ops5arith3SubpE3subBd_
FNDA:0,_RNvXININtNtNtNtCskxb0fiIX3sM_12librefit_lib2db6schema14weight_tracker7columnssi_0pENtB5_2idINtNtNtCs1FLWZe5rD62_4core3ops5arith3DivpE3divBd_
FNDA:0,_RNvXININtNtNtNtCskxb0fiIX3sM_12librefit_lib2db6schema14weight_tracker7columnssj_0pENtB5_2idINtNtNtCs1FLWZe5rD62_4core3ops5arith3MulpE3mulBd_
FNDA:0,_RNvXININtNtNtNtCskxb0fiIX3sM_12librefit_lib2db6schema6intake7columnss0_0pENtB5_4starINtNtCs7M5B8tusgtg_6diesel13query_builder13QueryFragmentpE8walk_astBd_
FNDA:0,_RNvXININtNtNtNtCskxb0fiIX3sM_12librefit_lib2db6schema6intake7columnssK_0pENtB5_6amountINtNtNtCs1FLWZe5rD62_4core3ops5arith3AddpE3addBd_
FNDA:0,_RNvXININtNtNtNtCskxb0fiIX3sM_12librefit_lib2db6schema6intake7columnssL_0pENtB5_6amountINtNtNtCs1FLWZe5rD62_4core3ops5arith3SubpE3subBd_
FNDA:0,_RNvXININtNtNtNtCskxb0fiIX3sM_12librefit_lib2db6schema6intake7columnssM_0pENtB5_6amountINtNtNtCs1FLWZe5rD62_4core3ops5arith3DivpE3divBd_
FNDA:0,_RNvXININtNtNtNtCskxb0fiIX3sM_12librefit_lib2db6schema6intake7columnssN_0pENtB5_6amountINtNtNtCs1FLWZe5rD62_4core3ops5arith3MulpE3mulBd_
FNDA:0,_RNvXININtNtNtNtCskxb0fiIX3sM_12librefit_lib2db6schema6intake7columnssg_0pENtB5_2idINtNtNtCs1FLWZe5rD62_4core3ops5arith3AddpE3addBd_
FNDA:0,_RNvXININtNtNtNtCskxb0fiIX3sM_12librefit_lib2db6schema6intake7columnssh_0pENtB5_2idINtNtNtCs1FLWZe5rD62_4core3ops5arith3SubpE3subBd_
FNDA:0,_RNvXININtNtNtNtCskxb0fiIX3sM_12librefit_lib2db6schema6intake7columnssi_0pENtB5_2idINtNtNtCs1FLWZe5rD62_4core3ops5arith3DivpE3divBd_
FNDA:0,_RNvXININtNtNtNtCskxb0fiIX3sM_12librefit_lib2db6schema6intake7columnssj_0pENtB5_2idINtNtNtCs1FLWZe5rD62_4core3ops5arith3MulpE3mulBd_
FNDA:0,_RNvXININtNtNtNtCskxb0fiIX3sM_12librefit_lib2db6schema9body_data7columnss0_0pENtB5_4starINtNtCs7M5B8tusgtg_6diesel13query_builder13QueryFragmentpE8walk_astBd_
FNDA:0,_RNvXININtNtNtNtCskxb0fiIX3sM_12librefit_lib2db6schema9body_data7columnss15_0pENtB5_6weightINtNtNtCs1FLWZe5rD62_4core3ops5arith3AddpE3addBd_
FNDA:0,_RNvXININtNtNtNtCskxb0fiIX3sM_12librefit_lib2db6schema9body_data7columnss16_0pENtB5_6weightINtNtNtCs1FLWZe5rD62_4core3ops5arith3SubpE3subBd_
FNDA:0,_RNvXININtNtNtNtCskxb0fiIX3sM_12librefit_lib2db6schema9body_data7columnss17_0pENtB5_6weightINtNtNtCs1FLWZe5rD62_4core3ops5arith3DivpE3divBd_
FNDA:0,_RNvXININtNtNtNtCskxb0fiIX3sM_12librefit_lib2db6schema9body_data7columnss18_0pENtB5_6weightINtNtNtCs1FLWZe5rD62_4core3ops5arith3MulpE3mulBd_
FNDA:0,_RNvXININtNtNtNtCskxb0fiIX3sM_12librefit_lib2db6schema9body_data7columnssA_0pENtB5_3ageINtNtNtCs1FLWZe5rD62_4core3ops5arith3MulpE3mulBd_
FNDA:0,_RNvXININtNtNtNtCskxb0fiIX3sM_12librefit_lib2db6schema9body_data7columnssO_0pENtB5_6heightINtNtNtCs1FLWZe5rD62_4core3ops5arith3AddpE3addBd_
FNDA:0,_RNvXININtNtNtNtCskxb0fiIX3sM_12librefit_lib2db6schema9body_data7columnssP_0pENtB5_6heightINtNtNtCs1FLWZe5rD62_4core3ops5arith3SubpE3subBd_
FNDA:0,_RNvXININtNtNtNtCskxb0fiIX3sM_12librefit_lib2db6schema9body_data7columnssQ_0pENtB5_6heightINtNtNtCs1FLWZe5rD62_4core3ops5arith3DivpE3divBd_
FNDA:0,_RNvXININtNtNtNtCskxb0fiIX3sM_12librefit_lib2db6schema9body_data7columnssR_0pENtB5_6heightINtNtNtCs1FLWZe5rD62_4core3ops5arith3MulpE3mulBd_
FNDA:0,_RNvXININtNtNtNtCskxb0fiIX3sM_12librefit_lib2db6schema9body_data7columnssg_0pENtB5_2idINtNtNtCs1FLWZe5rD62_4core3ops5arith3AddpE3addBd_
FNDA:0,_RNvXININtNtNtNtCskxb0fiIX3sM_12librefit_lib2db6schema9body_data7columnssh_0pENtB5_2idINtNtNtCs1FLWZe5rD62_4core3ops5arith3SubpE3subBd_
FNDA:0,_RNvXININtNtNtNtCskxb0fiIX3sM_12librefit_lib2db6schema9body_data7columnssi_0pENtB5_2idINtNtNtCs1FLWZe5rD62_4core3ops5arith3DivpE3divBd_
FNDA:0,_RNvXININtNtNtNtCskxb0fiIX3sM_12librefit_lib2db6schema9body_data7columnssj_0pENtB5_2idINtNtNtCs1FLWZe5rD62_4core3ops5arith3MulpE3mulBd_
FNDA:0,_RNvXININtNtNtNtCskxb0fiIX3sM_12librefit_lib2db6schema9body_data7columnssx_0pENtB5_3ageINtNtNtCs1FLWZe5rD62_4core3ops5arith3AddpE3addBd_
FNDA:0,_RNvXININtNtNtNtCskxb0fiIX3sM_12librefit_lib2db6schema9body_data7columnssy_0pENtB5_3ageINtNtNtCs1FLWZe5rD62_4core3ops5arith3SubpE3subBd_
FNDA:0,_RNvXININtNtNtNtCskxb0fiIX3sM_12librefit_lib2db6schema9body_data7columnssz_0pENtB5_3ageINtNtNtCs1FLWZe5rD62_4core3ops5arith3DivpE3divBd_
FNDA:0,_RNvXs2_NtNtNtCskxb0fiIX3sM_12librefit_lib2db6schema10libre_userNtB5_5tableNtNtCs7M5B8tusgtg_6diesel13query_builder7AsQuery8as_query
FNDA:0,_RNvXs2_NtNtNtCskxb0fiIX3sM_12librefit_lib2db6schema13food_categoryNtB5_5tableNtNtCs7M5B8tusgtg_6diesel13query_builder7AsQuery8as_query
FNDA:0,_RNvXs2_NtNtNtCskxb0fiIX3sM_12librefit_lib2db6schema13intake_targetNtB5_5tableNtNtCs7M5B8tusgtg_6diesel13query_builder7AsQuery8as_query
FNDA:0,_RNvXs2_NtNtNtCskxb0fiIX3sM_12librefit_lib2db6schema13weight_targetNtB5_5tableNtNtCs7M5B8tusgtg_6diesel13query_builder7AsQuery8as_query
FNDA:0,_RNvXs2_NtNtNtCskxb0fiIX3sM_12librefit_lib2db6schema14weight_trackerNtB5_5tableNtNtCs7M5B8tusgtg_6diesel13query_builder7AsQuery8as_query
FNDA:0,_RNvXs2_NtNtNtCskxb0fiIX3sM_12librefit_lib2db6schema6intakeNtB5_5tableNtNtCs7M5B8tusgtg_6diesel13query_builder7AsQuery8as_query
FNDA:0,_RNvXs2_NtNtNtCskxb0fiIX3sM_12librefit_lib2db6schema9body_dataNtB5_5tableNtNtCs7M5B8tusgtg_6diesel13query_builder7AsQuery8as_query
FNDA:0,_RNvXs3_NtNtNtCskxb0fiIX3sM_12librefit_lib2db6schema10libre_userNtB5_5tableNtNtCs7M5B8tusgtg_6diesel12query_source5Table11all_columns
FNDA:0,_RNvXs3_NtNtNtCskxb0fiIX3sM_12librefit_lib2db6schema10libre_userNtB5_5tableNtNtCs7M5B8tusgtg_6diesel12query_source5Table11primary_key
FNDA:0,_RNvXs3_NtNtNtCskxb0fiIX3sM_12librefit_lib2db6schema13food_categoryNtB5_5tableNtNtCs7M5B8tusgtg_6diesel12query_source5Table11all_columns
FNDA:0,_RNvXs3_NtNtNtCskxb0fiIX3sM_12librefit_lib2db6schema13food_categoryNtB5_5tableNtNtCs7M5B8tusgtg_6diesel12query_source5Table11primary_key
FNDA:0,_RNvXs3_NtNtNtCskxb0fiIX3sM_12librefit_lib2db6schema13intake_targetNtB5_5tableNtNtCs7M5B8tusgtg_6diesel12query_source5Table11all_columns
FNDA:0,_RNvXs3_NtNtNtCskxb0fiIX3sM_12librefit_lib2db6schema13intake_targetNtB5_5tableNtNtCs7M5B8tusgtg_6diesel12query_source5Table11primary_key
FNDA:0,_RNvXs3_NtNtNtCskxb0fiIX3sM_12librefit_lib2db6schema13weight_targetNtB5_5tableNtNtCs7M5B8tusgtg_6diesel12query_source5Table11all_columns
FNDA:0,_RNvXs3_NtNtNtCskxb0fiIX3sM_12librefit_lib2db6schema13weight_targetNtB5_5tableNtNtCs7M5B8tusgtg_6diesel12query_source5Table11primary_key
FNDA:0,_RNvXs3_NtNtNtCskxb0fiIX3sM_12librefit_lib2db6schema14weight_trackerNtB5_5tableNtNtCs7M5B8tusgtg_6diesel12query_source5Table11all_columns
FNDA:0,_RNvXs3_NtNtNtCskxb0fiIX3sM_12librefit_lib2db6schema14weight_trackerNtB5_5tableNtNtCs7M5B8tusgtg_6diesel12query_source5Table11primary_key
FNDA:0,_RNvXs3_NtNtNtCskxb0fiIX3sM_12librefit_lib2db6schema6intakeNtB5_5tableNtNtCs7M5B8tusgtg_6diesel12query_source5Table11all_columns
FNDA:0,_RNvXs3_NtNtNtCskxb0fiIX3sM_12librefit_lib2db6schema6intakeNtB5_5tableNtNtCs7M5B8tusgtg_6diesel12query_source5Table11primary_key
FNDA:0,_RNvXs3_NtNtNtCskxb0fiIX3sM_12librefit_lib2db6schema9body_dataNtB5_5tableNtNtCs7M5B8tusgtg_6diesel12query_source5Table11all_columns
FNDA:0,_RNvXs3_NtNtNtCskxb0fiIX3sM_12librefit_lib2db6schema9body_dataNtB5_5tableNtNtCs7M5B8tusgtg_6diesel12query_source5Table11primary_key
FNDA:0,_RNvXs4_NtNtNtCskxb0fiIX3sM_12librefit_lib2db6schema10libre_userNtB5_5tableNtNtCs7M5B8tusgtg_6diesel12associations8HasTable5table
FNDA:0,_RNvXs4_NtNtNtCskxb0fiIX3sM_12librefit_lib2db6schema13food_categoryNtB5_5tableNtNtCs7M5B8tusgtg_6diesel12associations8HasTable5table
FNDA:0,_RNvXs4_NtNtNtCskxb0fiIX3sM_12librefit_lib2db6schema13intake_targetNtB5_5tableNtNtCs7M5B8tusgtg_6diesel12associations8HasTable5table
FNDA:0,_RNvXs4_NtNtNtCskxb0fiIX3sM_12librefit_lib2db6schema13weight_targetNtB5_5tableNtNtCs7M5B8tusgtg_6diesel12associations8HasTable5table
FNDA:0,_RNvXs4_NtNtNtCskxb0fiIX3sM_12librefit_lib2db6schema14weight_trackerNtB5_5tableNtNtCs7M5B8tusgtg_6diesel12associations8HasTable5table
FNDA:0,_RNvXs4_NtNtNtCskxb0fiIX3sM_12librefit_lib2db6schema6intakeNtB5_5tableNtNtCs7M5B8tusgtg_6diesel12associations8HasTable5table
FNDA:0,_RNvXs4_NtNtNtCskxb0fiIX3sM_12librefit_lib2db6schema9body_dataNtB5_5tableNtNtCs7M5B8tusgtg_6diesel12associations8HasTable5table
FNDA:0,_RNvXs5_NtNtNtCskxb0fiIX3sM_12librefit_lib2db6schema10libre_userNtB5_5tableNtNtNtNtCs7M5B8tusgtg_6diesel13query_builder16update_statement6target16IntoUpdateTarget18into_update_target
FNDA:0,_RNvXs5_NtNtNtCskxb0fiIX3sM_12librefit_lib2db6schema13food_categoryNtB5_5tableNtNtNtNtCs7M5B8tusgtg_6diesel13query_builder16update_statement6target16IntoUpdateTarget18into_update_target
FNDA:0,_RNvXs5_NtNtNtCskxb0fiIX3sM_12librefit_lib2db6schema13intake_targetNtB5_5tableNtNtNtNtCs7M5B8tusgtg_6diesel13query_builder16update_statement6target16IntoUpdateTarget18into_update_target
FNDA:0,_RNvXs5_NtNtNtCskxb0fiIX3sM_12librefit_lib2db6schema13weight_targetNtB5_5tableNtNtNtNtCs7M5B8tusgtg_6diesel13query_builder16update_statement6target16IntoUpdateTarget18into_update_target
FNDA:0,_RNvXs5_NtNtNtCskxb0fiIX3sM_12librefit_lib2db6schema14weight_trackerNtB5_5tableNtNtNtNtCs7M5B8tusgtg_6diesel13query_builder16update_statement6target16IntoUpdateTarget18into_update_target
FNDA:0,_RNvXs5_NtNtNtCskxb0fiIX3sM_12librefit_lib2db6schema6intakeNtB5_5tableNtNtNtNtCs7M5B8tusgtg_6diesel13query_builder16update_statement6target16IntoUpdateTarget18into_update_target
FNDA:0,_RNvXs5_NtNtNtCskxb0fiIX3sM_12librefit_lib2db6schema9body_dataNtB5_5tableNtNtNtNtCs7M5B8tusgtg_6diesel13query_builder16update_statement6target16IntoUpdateTarget18into_update_target
FNDA:0,_RNvXs_NtNtNtCskxb0fiIX3sM_12librefit_lib2db6schema10libre_userNtB4_5tableNtNtCs7M5B8tusgtg_6diesel12query_source11QuerySource11from_clause
FNDA:0,_RNvXs_NtNtNtCskxb0fiIX3sM_12librefit_lib2db6schema10libre_userNtB4_5tableNtNtCs7M5B8tusgtg_6diesel12query_source11QuerySource17default_selection
FNDA:0,_RNvXs_NtNtNtCskxb0fiIX3sM_12librefit_lib2db6schema13food_categoryNtB4_5tableNtNtCs7M5B8tusgtg_6diesel12query_source11QuerySource11from_clause
FNDA:0,_RNvXs_NtNtNtCskxb0fiIX3sM_12librefit_lib2db6schema13food_categoryNtB4_5tableNtNtCs7M5B8tusgtg_6diesel12query_source11QuerySource17default_selection
FNDA:0,_RNvXs_NtNtNtCskxb0fiIX3sM_12librefit_lib2db6schema13intake_targetNtB4_5tableNtNtCs7M5B8tusgtg_6diesel12query_source11QuerySource11from_clause
FNDA:0,_RNvXs_NtNtNtCskxb0fiIX3sM_12librefit_lib2db6schema13intake_targetNtB4_5tableNtNtCs7M5B8tusgtg_6diesel12query_source11QuerySource17default_selection
FNDA:0,_RNvXs_NtNtNtCskxb0fiIX3sM_12librefit_lib2db6schema13weight_targetNtB4_5tableNtNtCs7M5B8tusgtg_6diesel12query_source11QuerySource11from_clause
FNDA:0,_RNvXs_NtNtNtCskxb0fiIX3sM_12librefit_lib2db6schema13weight_targetNtB4_5tableNtNtCs7M5B8tusgtg_6diesel12query_source11QuerySource17default_selection
FNDA:0,_RNvXs_NtNtNtCskxb0fiIX3sM_12librefit_lib2db6schema14weight_trackerNtB4_5tableNtNtCs7M5B8tusgtg_6diesel12query_source11QuerySource11from_clause
FNDA:0,_RNvXs_NtNtNtCskxb0fiIX3sM_12librefit_lib2db6schema14weight_trackerNtB4_5tableNtNtCs7M5B8tusgtg_6diesel12query_source11QuerySource17default_selection
FNDA:0,_RNvXs_NtNtNtCskxb0fiIX3sM_12librefit_lib2db6schema6intakeNtB4_5tableNtNtCs7M5B8tusgtg_6diesel12query_source11QuerySource11from_clause
FNDA:0,_RNvXs_NtNtNtCskxb0fiIX3sM_12librefit_lib2db6schema6intakeNtB4_5tableNtNtCs7M5B8tusgtg_6diesel12query_source11QuerySource17default_selection
FNDA:0,_RNvXs_NtNtNtCskxb0fiIX3sM_12librefit_lib2db6schema9body_dataNtB4_5tableNtNtCs7M5B8tusgtg_6diesel12query_source11QuerySource11from_clause
FNDA:0,_RNvXs_NtNtNtCskxb0fiIX3sM_12librefit_lib2db6schema9body_dataNtB4_5tableNtNtCs7M5B8tusgtg_6diesel12query_source11QuerySource17default_selection
FNF:7
FNH:7
DA:11,182
DA:18,92
DA:28,326
DA:39,190
DA:47,238
DA:58,182
DA:66,298
BRF:0
BRH:0
LF:7
LH:7
end_of_record
SF:/Users/steff-man/Projects/librefit/src-tauri/src/i18n/localize.rs
FN:10,_RNCNCNvNtNtCs99Oc0knXXS8_12librefit_lib4i18n8localize26localize_validation_errors00B9_
FN:9,_RNCNvNtNtCs99Oc0knXXS8_12librefit_lib4i18n8localize26localize_validation_errors0B7_
FN:18,_RNvNtNtCs99Oc0knXXS8_12librefit_lib4i18n8localize25localize_validation_error
FN:3,_RNvNtNtCs99Oc0knXXS8_12librefit_lib4i18n8localize26localize_validation_errors
FN:10,_RNCNCNvNtNtCskxb0fiIX3sM_12librefit_lib4i18n8localize26localize_validation_errors00B9_
FN:9,_RNCNvNtNtCskxb0fiIX3sM_12librefit_lib4i18n8localize26localize_validation_errors0B7_
FN:18,_RNvNtNtCskxb0fiIX3sM_12librefit_lib4i18n8localize25localize_validation_error
FN:3,_RNvNtNtCskxb0fiIX3sM_12librefit_lib4i18n8localize26localize_validation_errors
FNDA:13,_RNCNCNvNtNtCs99Oc0knXXS8_12librefit_lib4i18n8localize26localize_validation_errors00B9_
FNDA:13,_RNCNvNtNtCs99Oc0knXXS8_12librefit_lib4i18n8localize26localize_validation_errors0B7_
FNDA:13,_RNvNtNtCs99Oc0knXXS8_12librefit_lib4i18n8localize25localize_validation_error
FNDA:13,_RNvNtNtCs99Oc0knXXS8_12librefit_lib4i18n8localize26localize_validation_errors
FNDA:0,_RNCNCNvNtNtCskxb0fiIX3sM_12librefit_lib4i18n8localize26localize_validation_errors00B9_
FNDA:0,_RNCNvNtNtCskxb0fiIX3sM_12librefit_lib4i18n8localize26localize_validation_errors0B7_
FNDA:0,_RNvNtNtCskxb0fiIX3sM_12librefit_lib4i18n8localize25localize_validation_error
FNDA:0,_RNvNtNtCskxb0fiIX3sM_12librefit_lib4i18n8localize26localize_validation_errors
FNF:4
FNH:4
DA:3,13
DA:4,13
DA:6,13
DA:7,13
DA:8,13
DA:9,13
DA:10,13
DA:11,13
DA:12,13
DA:13,13
DA:15,13
DA:16,13
DA:18,13
DA:19,13
DA:20,13
DA:22,13
DA:24,13
DA:25,13
DA:26,13
DA:27,13
DA:28,13
DA:29,13
BRF:0
BRH:0
LF:24
LH:24
end_of_record
SF:/Users/steff-man/Projects/librefit/src-tauri/src/init/db_setup.rs
FN:9,_RNvNtNtCs99Oc0knXXS8_12librefit_lib4init8db_setup14run_migrations
FN:9,_RNvNtNtCskxb0fiIX3sM_12librefit_lib4init8db_setup14run_migrations
FNDA:155,_RNvNtNtCs99Oc0knXXS8_12librefit_lib4init8db_setup14run_migrations
FNDA:0,_RNvNtNtCskxb0fiIX3sM_12librefit_lib4init8db_setup14run_migrations
FNF:1
FNH:1
DA:9,155
DA:10,155
DA:11,155
DA:12,155
DA:18,155
DA:20,155
DA:21,155
BRF:0
BRH:0
LF:7
LH:7
end_of_record
SF:/Users/steff-man/Projects/librefit/src-tauri/src/lib.rs
FN:126,_RNCNvCs99Oc0knXXS8_12librefit_lib8setup_db0B3_
FN:145,_RNCNvCs99Oc0knXXS8_12librefit_lib8setup_dbs0_0B3_
FN:134,_RNCNvCs99Oc0knXXS8_12librefit_lib8setup_dbs_0B3_
FN:44,_RNvCs99Oc0knXXS8_12librefit_lib3run
FN:91,_RNvCs99Oc0knXXS8_12librefit_lib8setup_db
FN:126,_RNCNvCskxb0fiIX3sM_12librefit_lib8setup_db0B3_
FN:145,_RNCNvCskxb0fiIX3sM_12librefit_lib8setup_dbs0_0B3_
FN:134,_RNCNvCskxb0fiIX3sM_12librefit_lib8setup_dbs_0B3_
FN:44,_RNvCskxb0fiIX3sM_12librefit_lib3run
FN:91,_RNvCskxb0fiIX3sM_12librefit_lib8setup_db
FNDA:0,_RNCNvCs99Oc0knXXS8_12librefit_lib8setup_db0B3_
FNDA:0,_RNCNvCs99Oc0knXXS8_12librefit_lib8setup_dbs0_0B3_
FNDA:0,_RNCNvCs99Oc0knXXS8_12librefit_lib8setup_dbs_0B3_
FNDA:0,_RNvCs99Oc0knXXS8_12librefit_lib3run
FNDA:0,_RNvCs99Oc0knXXS8_12librefit_lib8setup_db
FNDA:0,_RNCNvCskxb0fiIX3sM_12librefit_lib8setup_db0B3_
FNDA:0,_RNCNvCskxb0fiIX3sM_12librefit_lib8setup_dbs0_0B3_
FNDA:0,_RNCNvCskxb0fiIX3sM_12librefit_lib8setup_dbs_0B3_
FNDA:0,_RNvCskxb0fiIX3sM_12librefit_lib3run
FNDA:0,_RNvCskxb0fiIX3sM_12librefit_lib8setup_db
FNF:5
FNH:0
DA:44,0
DA:45,0
DA:46,0
DA:47,0
DA:48,0
DA:49,0
DA:50,0
DA:51,0
DA:52,0
DA:53,0
DA:54,0
DA:56,0
DA:57,0
DA:59,0
DA:60,0
DA:61,0
DA:87,0
DA:88,0
DA:89,0
DA:91,0
DA:95,0
DA:96,0
DA:99,0
DA:100,0
DA:101,0
DA:102,0
DA:105,0
DA:106,0
DA:107,0
DA:108,0
DA:110,0
DA:112,0
DA:114,0
DA:118,0
DA:119,0
DA:122,0
DA:123,0
DA:124,0
DA:125,0
DA:126,0
DA:127,0
DA:128,0
DA:129,0
DA:130,0
DA:131,0
DA:134,0
DA:135,0
DA:136,0
DA:137,0
DA:140,0
DA:142,0
DA:145,0
DA:146,0
DA:147,0
DA:148,0
DA:151,0
DA:153,0
DA:154,0
DA:155,0
DA:156,0
DA:157,0
DA:158,0
DA:159,0
DA:160,0
DA:165,0
DA:167,0
DA:168,0
BRF:0
BRH:0
LF:72
LH:0
end_of_record
SF:/Users/steff-man/Projects/librefit/src-tauri/src/main.rs
FN:9,_RNvCs1uL8rKwhXdD_8librefit4main
FN:9,_RNvCskWdGJxwkfZH_8librefit4main
FNDA:0,_RNvCs1uL8rKwhXdD_8librefit4main
FNDA:0,_RNvCskWdGJxwkfZH_8librefit4main
FNF:1
FNH:0
DA:9,0
DA:10,0
DA:11,0
BRF:0
BRH:0
LF:3
LH:0
end_of_record
SF:/Users/steff-man/Projects/librefit/src-tauri/src/service/body.rs
FN:136,_RNCNvNtNtCs99Oc0knXXS8_12librefit_lib7service4body16update_body_data0B7_
FN:45,_RNvMNtNtCs99Oc0knXXS8_12librefit_lib7service4bodyNtB2_8BodyData3get
FN:77,_RNvMNtNtCs99Oc0knXXS8_12librefit_lib7service4bodyNtB2_8BodyData6create
FN:50,_RNvMNtNtCs99Oc0knXXS8_12librefit_lib7service4bodyNtB2_8BodyData6update
FN:104,_RNvNtNtCs99Oc0knXXS8_12librefit_lib7service4body13get_body_data
FN:109,_RNvNtNtCs99Oc0knXXS8_12librefit_lib7service4body16update_body_data
FN:136,_RNCNvNtNtCskxb0fiIX3sM_12librefit_lib7service4body16update_body_data0B7_
FN:45,_RNvMNtNtCskxb0fiIX3sM_12librefit_lib7service4bodyNtB2_8BodyData3get
FN:77,_RNvMNtNtCskxb0fiIX3sM_12librefit_lib7service4bodyNtB2_8BodyData6create
FN:50,_RNvMNtNtCskxb0fiIX3sM_12librefit_lib7service4bodyNtB2_8BodyData6update
FN:104,_RNvNtNtCskxb0fiIX3sM_12librefit_lib7service4body13get_body_data
FN:109,_RNvNtNtCskxb0fiIX3sM_12librefit_lib7service4body16update_body_data
FN:15,_RNvXININvNtNtCskxb0fiIX3sM_12librefit_lib7service4bodys_1__0ppppppENtB7_8BodyDataINtNtCs7M5B8tusgtg_6diesel11deserialize9QueryableTpppppEpE5buildBb_
FNDA:9,_RNCNvNtNtCs99Oc0knXXS8_12librefit_lib7service4body16update_body_data0B7_
FNDA:5,_RNvMNtNtCs99Oc0knXXS8_12librefit_lib7service4bodyNtB2_8BodyData3get
FNDA:16,_RNvMNtNtCs99Oc0knXXS8_12librefit_lib7service4bodyNtB2_8BodyData6create
FNDA:22,_RNvMNtNtCs99Oc0knXXS8_12librefit_lib7service4bodyNtB2_8BodyData6update
FNDA:2,_RNvNtNtCs99Oc0knXXS8_12librefit_lib7service4body13get_body_data
FNDA:15,_RNvNtNtCs99Oc0knXXS8_12librefit_lib7service4body16update_body_data
FNDA:0,_RNCNvNtNtCskxb0fiIX3sM_12librefit_lib7service4body16update_body_data0B7_
FNDA:0,_RNvMNtNtCskxb0fiIX3sM_12librefit_lib7service4bodyNtB2_8BodyData3get
FNDA:0,_RNvMNtNtCskxb0fiIX3sM_12librefit_lib7service4bodyNtB2_8BodyData6create
FNDA:0,_RNvMNtNtCskxb0fiIX3sM_12librefit_lib7service4bodyNtB2_8BodyData6update
FNDA:0,_RNvNtNtCskxb0fiIX3sM_12librefit_lib7service4body13get_body_data
FNDA:0,_RNvNtNtCskxb0fiIX3sM_12librefit_lib7service4body16update_body_data
FNDA:0,_RNvXININvNtNtCskxb0fiIX3sM_12librefit_lib7service4bodys_1__0ppppppENtB7_8BodyDataINtNtCs7M5B8tusgtg_6diesel11deserialize9QueryableTpppppEpE5buildBb_
FNF:7
FNH:6
DA:15,0
DA:45,5
DA:46,5
DA:47,5
DA:50,22
DA:51,22
DA:52,22
DA:53,22
DA:54,22
DA:55,22
DA:56,22
DA:57,22
DA:58,6
DA:59,6
DA:60,6
DA:61,6
DA:62,6
DA:63,6
DA:64,6
DA:65,6
DA:67,6
DA:68,6
DA:69,6
DA:70,6
DA:72,16
DA:74,22
DA:77,16
DA:78,16
DA:79,16
DA:80,16
DA:81,16
DA:82,16
DA:83,16
DA:84,16
DA:85,16
DA:86,16
DA:87,16
DA:88,16
DA:89,16
DA:90,16
DA:92,16
DA:93,16
DA:94,16
DA:95,16
DA:96,16
DA:104,2
DA:105,2
DA:106,2
DA:109,15
DA:110,15
DA:111,15
DA:112,15
DA:113,15
DA:114,15
DA:115,15
DA:116,15
DA:117,0
DA:124,15
DA:125,15
DA:126,15
DA:127,15
DA:128,15
DA:129,15
DA:130,15
DA:132,15
DA:133,6
DA:134,9
DA:136,9
DA:137,15
BRF:0
BRH:0
LF:70
LH:68
end_of_record
SF:/Users/steff-man/Projects/librefit/src-tauri/src/service/dashboard.rs
FN:35,_RNvMNtNtCs99Oc0knXXS8_12librefit_lib7service9dashboardNtB2_9Dashboard14build_for_date
FN:119,_RNvNtNtCs99Oc0knXXS8_12librefit_lib7service9dashboard15daily_dashboard
FN:110,_RNvNtNtCs99Oc0knXXS8_12librefit_lib7service9dashboard20get_date_range_begin
FN:37,_RNCNvMNtNtCs99Oc0knXXS8_12librefit_lib7service9dashboardNtB4_9Dashboard14build_for_date0B8_
FN:44,_RNCNvMNtNtCs99Oc0knXXS8_12librefit_lib7service9dashboardNtB4_9Dashboard14build_for_dates0_0B8_
FN:49,_RNCNvMNtNtCs99Oc0knXXS8_12librefit_lib7service9dashboardNtB4_9Dashboard14build_for_dates1_0B8_
FN:52,_RNCNvMNtNtCs99Oc0knXXS8_12librefit_lib7service9dashboardNtB4_9Dashboard14build_for_dates2_0B8_
FN:71,_RNCNvMNtNtCs99Oc0knXXS8_12librefit_lib7service9dashboardNtB4_9Dashboard14build_for_dates3_0B8_
FN:74,_RNCNvMNtNtCs99Oc0knXXS8_12librefit_lib7service9dashboardNtB4_9Dashboard14build_for_dates4_0B8_
FN:78,_RNCNvMNtNtCs99Oc0knXXS8_12librefit_lib7service9dashboardNtB4_9Dashboard14build_for_dates5_0B8_
FN:81,_RNCNvMNtNtCs99Oc0knXXS8_12librefit_lib7service9dashboardNtB4_9Dashboard14build_for_dates6_0B8_
FN:84,_RNCNvMNtNtCs99Oc0knXXS8_12librefit_lib7service9dashboardNtB4_9Dashboard14build_for_dates7_0B8_
FN:41,_RNCNvMNtNtCs99Oc0knXXS8_12librefit_lib7service9dashboardNtB4_9Dashboard14build_for_dates_0B8_
FN:124,_RNCNvNtNtCs99Oc0knXXS8_12librefit_lib7service9dashboard15daily_dashboard0B7_
FN:37,_RNCNvMNtNtCskxb0fiIX3sM_12librefit_lib7service9dashboardNtB4_9Dashboard14build_for_date0B8_
FN:44,_RNCNvMNtNtCskxb0fiIX3sM_12librefit_lib7service9dashboardNtB4_9Dashboard14build_for_dates0_0B8_
FN:49,_RNCNvMNtNtCskxb0fiIX3sM_12librefit_lib7service9dashboardNtB4_9Dashboard14build_for_dates1_0B8_
FN:52,_RNCNvMNtNtCskxb0fiIX3sM_12librefit_lib7service9dashboardNtB4_9Dashboard14build_for_dates2_0B8_
FN:71,_RNCNvMNtNtCskxb0fiIX3sM_12librefit_lib7service9dashboardNtB4_9Dashboard14build_for_dates3_0B8_
FN:74,_RNCNvMNtNtCskxb0fiIX3sM_12librefit_lib7service9dashboardNtB4_9Dashboard14build_for_dates4_0B8_
FN:78,_RNCNvMNtNtCskxb0fiIX3sM_12librefit_lib7service9dashboardNtB4_9Dashboard14build_for_dates5_0B8_
FN:81,_RNCNvMNtNtCskxb0fiIX3sM_12librefit_lib7service9dashboardNtB4_9Dashboard14build_for_dates6_0B8_
FN:84,_RNCNvMNtNtCskxb0fiIX3sM_12librefit_lib7service9dashboardNtB4_9Dashboard14build_for_dates7_0B8_
FN:41,_RNCNvMNtNtCskxb0fiIX3sM_12librefit_lib7service9dashboardNtB4_9Dashboard14build_for_dates_0B8_
FN:124,_RNCNvNtNtCskxb0fiIX3sM_12librefit_lib7service9dashboard15daily_dashboard0B7_
FN:35,_RNvMNtNtCskxb0fiIX3sM_12librefit_lib7service9dashboardNtB2_9Dashboard14build_for_date
FN:119,_RNvNtNtCskxb0fiIX3sM_12librefit_lib7service9dashboard15daily_dashboard
FN:110,_RNvNtNtCskxb0fiIX3sM_12librefit_lib7service9dashboard20get_date_range_begin
FNDA:11,_RNvMNtNtCs99Oc0knXXS8_12librefit_lib7service9dashboardNtB2_9Dashboard14build_for_date
FNDA:11,_RNvNtNtCs99Oc0knXXS8_12librefit_lib7service9dashboard15daily_dashboard
FNDA:16,_RNvNtNtCs99Oc0knXXS8_12librefit_lib7service9dashboard20get_date_range_begin
FNDA:1,_RNCNvMNtNtCs99Oc0knXXS8_12librefit_lib7service9dashboardNtB4_9Dashboard14build_for_date0B8_
FNDA:1,_RNCNvMNtNtCs99Oc0knXXS8_12librefit_lib7service9dashboardNtB4_9Dashboard14build_for_dates0_0B8_
FNDA:0,_RNCNvMNtNtCs99Oc0knXXS8_12librefit_lib7service9dashboardNtB4_9Dashboard14build_for_dates1_0B8_
FNDA:0,_RNCNvMNtNtCs99Oc0knXXS8_12librefit_lib7service9dashboardNtB4_9Dashboard14build_for_dates2_0B8_
FNDA:0,_RNCNvMNtNtCs99Oc0knXXS8_12librefit_lib7service9dashboardNtB4_9Dashboard14build_for_dates3_0B8_
FNDA:0,_RNCNvMNtNtCs99Oc0knXXS8_12librefit_lib7service9dashboardNtB4_9Dashboard14build_for_dates4_0B8_
FNDA:0,_RNCNvMNtNtCs99Oc0knXXS8_12librefit_lib7service9dashboardNtB4_9Dashboard14build_for_dates5_0B8_
FNDA:0,_RNCNvMNtNtCs99Oc0knXXS8_12librefit_lib7service9dashboardNtB4_9Dashboard14build_for_dates6_0B8_
FNDA:0,_RNCNvMNtNtCs99Oc0knXXS8_12librefit_lib7service9dashboardNtB4_9Dashboard14build_for_dates7_0B8_
FNDA:1,_RNCNvMNtNtCs99Oc0knXXS8_12librefit_lib7service9dashboardNtB4_9Dashboard14build_for_dates_0B8_
FNDA:0,_RNCNvNtNtCs99Oc0knXXS8_12librefit_lib7service9dashboard15daily_dashboard0B7_
FNDA:0,_RNCNvMNtNtCskxb0fiIX3sM_12librefit_lib7service9dashboardNtB4_9Dashboard14build_for_date0B8_
FNDA:0,_RNCNvMNtNtCskxb0fiIX3sM_12librefit_lib7service9dashboardNtB4_9Dashboard14build_for_dates0_0B8_
FNDA:0,_RNCNvMNtNtCskxb0fiIX3sM_12librefit_lib7service9dashboardNtB4_9Dashboard14build_for_dates1_0B8_
FNDA:0,_RNCNvMNtNtCskxb0fiIX3sM_12librefit_lib7service9dashboardNtB4_9Dashboard14build_for_dates2_0B8_
FNDA:0,_RNCNvMNtNtCskxb0fiIX3sM_12librefit_lib7service9dashboardNtB4_9Dashboard14build_for_dates3_0B8_
FNDA:0,_RNCNvMNtNtCskxb0fiIX3sM_12librefit_lib7service9dashboardNtB4_9Dashboard14build_for_dates4_0B8_
FNDA:0,_RNCNvMNtNtCskxb0fiIX3sM_12librefit_lib7service9dashboardNtB4_9Dashboard14build_for_dates5_0B8_
FNDA:0,_RNCNvMNtNtCskxb0fiIX3sM_12librefit_lib7service9dashboardNtB4_9Dashboard14build_for_dates6_0B8_
FNDA:0,_RNCNvMNtNtCskxb0fiIX3sM_12librefit_lib7service9dashboardNtB4_9Dashboard14build_for_dates7_0B8_
FNDA:0,_RNCNvMNtNtCskxb0fiIX3sM_12librefit_lib7service9dashboardNtB4_9Dashboard14build_for_dates_0B8_
FNDA:0,_RNCNvNtNtCskxb0fiIX3sM_12librefit_lib7service9dashboard15daily_dashboard0B7_
FNDA:0,_RNvMNtNtCskxb0fiIX3sM_12librefit_lib7service9dashboardNtB2_9Dashboard14build_for_date
FNDA:0,_RNvNtNtCskxb0fiIX3sM_12librefit_lib7service9dashboard15daily_dashboard
FNDA:0,_RNvNtNtCskxb0fiIX3sM_12librefit_lib7service9dashboard20get_date_range_begin
FNF:14
FNH:6
DA:35,11
DA:36,11
DA:37,11
DA:40,9
DA:41,10
DA:43,8
DA:44,9
DA:47,8
DA:48,8
DA:49,8
DA:50,8
DA:51,8
DA:52,8
DA:55,8
DA:56,8
DA:57,6
DA:59,2
DA:63,8
DA:64,8
DA:67,8
DA:70,8
DA:71,8
DA:72,8
DA:73,8
DA:74,8
DA:77,8
DA:78,8
DA:79,8
DA:80,8
DA:81,8
DA:84,8
DA:87,8
DA:88,8
DA:89,8
DA:90,8
DA:92,8
DA:93,8
DA:94,8
DA:95,8
DA:96,8
DA:97,8
DA:98,8
DA:99,8
DA:100,8
DA:101,8
DA:102,8
DA:103,11
DA:110,16
DA:111,16
DA:112,16
DA:119,11
DA:120,11
DA:122,11
DA:123,11
DA:124,11
DA:126,11
DA:127,11
BRF:0
BRH:0
LF:68
LH:60
end_of_record
SF:/Users/steff-man/Projects/librefit/src-tauri/src/service/intake.rs
FN:340,_RNCNCNvNtNtCs99Oc0knXXS8_12librefit_lib7service6intake34get_calorie_tracker_dates_in_range00B9_
FN:268,_RNCNvNtNtCs99Oc0knXXS8_12librefit_lib7service6intake21create_calorie_target0B7_
FN:141,_RNCNvNtNtCs99Oc0knXXS8_12librefit_lib7service6intake22validate_intake_target0B7_
FN:143,_RNCNvNtNtCs99Oc0knXXS8_12librefit_lib7service6intake22validate_intake_targets_0B7_
FN:288,_RNCNvNtNtCs99Oc0knXXS8_12librefit_lib7service6intake28create_calorie_tracker_entry0B7_
FN:314,_RNCNvNtNtCs99Oc0knXXS8_12librefit_lib7service6intake28delete_calorie_tracker_entry0B7_
FN:308,_RNCNvNtNtCs99Oc0knXXS8_12librefit_lib7service6intake28update_calorie_tracker_entry0B7_
FN:339,_RNCNvNtNtCs99Oc0knXXS8_12librefit_lib7service6intake34get_calorie_tracker_dates_in_range0B7_
FN:323,_RNCNvNtNtCs99Oc0knXXS8_12librefit_lib7service6intake34get_calorie_tracker_for_date_range0B7_
FN:194,_RNvMNtNtCs99Oc0knXXS8_12librefit_lib7service6intakeNtB2_6Intake12find_by_date
FN:201,_RNvMNtNtCs99Oc0knXXS8_12librefit_lib7service6intakeNtB2_6Intake18find_by_date_range
FN:172,_RNvMNtNtCs99Oc0knXXS8_12librefit_lib7service6intakeNtB2_6Intake3all
FN:164,_RNvMNtNtCs99Oc0knXXS8_12librefit_lib7service6intakeNtB2_6Intake6create
FN:189,_RNvMNtNtCs99Oc0knXXS8_12librefit_lib7service6intakeNtB2_6Intake6delete
FN:177,_RNvMNtNtCs99Oc0knXXS8_12librefit_lib7service6intakeNtB2_6Intake6update
FN:363,_RNvMs0_NtNtCs99Oc0knXXS8_12librefit_lib7service6intakeNtB5_12FoodCategory11find_by_key
FN:358,_RNvMs0_NtNtCs99Oc0knXXS8_12librefit_lib7service6intakeNtB5_12FoodCategory3all
FN:223,_RNvMs_NtNtCs99Oc0knXXS8_12librefit_lib7service6intakeNtB4_12IntakeTarget3all
FN:215,_RNvMs_NtNtCs99Oc0knXXS8_12librefit_lib7service6intakeNtB4_12IntakeTarget6create
FN:240,_RNvMs_NtNtCs99Oc0knXXS8_12librefit_lib7service6intakeNtB4_12IntakeTarget6delete
FN:228,_RNvMs_NtNtCs99Oc0knXXS8_12librefit_lib7service6intakeNtB4_12IntakeTarget6update
FN:245,_RNvMs_NtNtCs99Oc0knXXS8_12librefit_lib7service6intakeNtB4_12IntakeTarget9find_last
FN:375,_RNvNtNtCs99Oc0knXXS8_12librefit_lib7service6intake19get_food_categories
FN:119,_RNvNtNtCs99Oc0knXXS8_12librefit_lib7service6intake20validate_date_format
FN:258,_RNvNtNtCs99Oc0knXXS8_12librefit_lib7service6intake21create_calorie_target
FN:129,_RNvNtNtCs99Oc0knXXS8_12librefit_lib7service6intake22validate_intake_target
FN:272,_RNvNtNtCs99Oc0knXXS8_12librefit_lib7service6intake23get_last_calorie_target
FN:278,_RNvNtNtCs99Oc0knXXS8_12librefit_lib7service6intake28create_calorie_tracker_entry
FN:313,_RNvNtNtCs99Oc0knXXS8_12librefit_lib7service6intake28delete_calorie_tracker_entry
FN:293,_RNvNtNtCs99Oc0knXXS8_12librefit_lib7service6intake28update_calorie_tracker_entry
FN:328,_RNvNtNtCs99Oc0knXXS8_12librefit_lib7service6intake34get_calorie_tracker_dates_in_range
FN:318,_RNvNtNtCs99Oc0knXXS8_12librefit_lib7service6intake34get_calorie_tracker_for_date_range
FN:340,_RNCNCNvNtNtCskxb0fiIX3sM_12librefit_lib7service6intake34get_calorie_tracker_dates_in_range00B9_
FN:268,_RNCNvNtNtCskxb0fiIX3sM_12librefit_lib7service6intake21create_calorie_target0B7_
FN:141,_RNCNvNtNtCskxb0fiIX3sM_12librefit_lib7service6intake22validate_intake_target0B7_
FN:143,_RNCNvNtNtCskxb0fiIX3sM_12librefit_lib7service6intake22validate_intake_targets_0B7_
FN:288,_RNCNvNtNtCskxb0fiIX3sM_12librefit_lib7service6intake28create_calorie_tracker_entry0B7_
FN:314,_RNCNvNtNtCskxb0fiIX3sM_12librefit_lib7service6intake28delete_calorie_tracker_entry0B7_
FN:308,_RNCNvNtNtCskxb0fiIX3sM_12librefit_lib7service6intake28update_calorie_tracker_entry0B7_
FN:339,_RNCNvNtNtCskxb0fiIX3sM_12librefit_lib7service6intake34get_calorie_tracker_dates_in_range0B7_
FN:323,_RNCNvNtNtCskxb0fiIX3sM_12librefit_lib7service6intake34get_calorie_tracker_for_date_range0B7_
FN:194,_RNvMNtNtCskxb0fiIX3sM_12librefit_lib7service6intakeNtB2_6Intake12find_by_date
FN:201,_RNvMNtNtCskxb0fiIX3sM_12librefit_lib7service6intakeNtB2_6Intake18find_by_date_range
FN:172,_RNvMNtNtCskxb0fiIX3sM_12librefit_lib7service6intakeNtB2_6Intake3all
FN:164,_RNvMNtNtCskxb0fiIX3sM_12librefit_lib7service6intakeNtB2_6Intake6create
FN:189,_RNvMNtNtCskxb0fiIX3sM_12librefit_lib7service6intakeNtB2_6Intake6delete
FN:177,_RNvMNtNtCskxb0fiIX3sM_12librefit_lib7service6intakeNtB2_6Intake6update
FN:363,_RNvMs0_NtNtCskxb0fiIX3sM_12librefit_lib7service6intakeNtB5_12FoodCategory11find_by_key
FN:358,_RNvMs0_NtNtCskxb0fiIX3sM_12librefit_lib7service6intakeNtB5_12FoodCategory3all
FN:223,_RNvMs_NtNtCskxb0fiIX3sM_12librefit_lib7service6intakeNtB4_12IntakeTarget3all
FN:215,_RNvMs_NtNtCskxb0fiIX3sM_12librefit_lib7service6intakeNtB4_12IntakeTarget6create
FN:240,_RNvMs_NtNtCskxb0fiIX3sM_12librefit_lib7service6intakeNtB4_12IntakeTarget6delete
FN:228,_RNvMs_NtNtCskxb0fiIX3sM_12librefit_lib7service6intakeNtB4_12IntakeTarget6update
FN:245,_RNvMs_NtNtCskxb0fiIX3sM_12librefit_lib7service6intakeNtB4_12IntakeTarget9find_last
FN:375,_RNvNtNtCskxb0fiIX3sM_12librefit_lib7service6intake19get_food_categories
FN:119,_RNvNtNtCskxb0fiIX3sM_12librefit_lib7service6intake20validate_date_format
FN:258,_RNvNtNtCskxb0fiIX3sM_12librefit_lib7service6intake21create_calorie_target
FN:129,_RNvNtNtCskxb0fiIX3sM_12librefit_lib7service6intake22validate_intake_target
FN:272,_RNvNtNtCskxb0fiIX3sM_12librefit_lib7service6intake23get_last_calorie_target
FN:278,_RNvNtNtCskxb0fiIX3sM_12librefit_lib7service6intake28create_calorie_tracker_entry
FN:313,_RNvNtNtCskxb0fiIX3sM_12librefit_lib7service6intake28delete_calorie_tracker_entry
FN:293,_RNvNtNtCskxb0fiIX3sM_12librefit_lib7service6intake28update_calorie_tracker_entry
FN:328,_RNvNtNtCskxb0fiIX3sM_12librefit_lib7service6intake34get_calorie_tracker_dates_in_range
FN:318,_RNvNtNtCskxb0fiIX3sM_12librefit_lib7service6intake34get_calorie_tracker_for_date_range
FN:15,_RNvXININvNtNtCskxb0fiIX3sM_12librefit_lib7service6intake1__0pppENtB7_12FoodCategoryINtNtCs7M5B8tusgtg_6diesel11deserialize9QueryableTppEpE5buildBb_
FN:25,_RNvXININvNtNtCskxb0fiIX3sM_12librefit_lib7service6intakes2_1__0ppppppENtB7_6IntakeINtNtCs7M5B8tusgtg_6diesel11deserialize9QueryableTpppppEpE5buildBb_
FN:74,_RNvXININvNtNtCskxb0fiIX3sM_12librefit_lib7service6intakesa_1__0pppppppENtB7_12IntakeTargetINtNtCs7M5B8tusgtg_6diesel11deserialize9QueryableTppppppEpE5buildBb_
FNDA:1,_RNCNCNvNtNtCs99Oc0knXXS8_12librefit_lib7service6intake34get_calorie_tracker_dates_in_range00B9_
FNDA:11,_RNCNvNtNtCs99Oc0knXXS8_12librefit_lib7service6intake21create_calorie_target0B7_
FNDA:0,_RNCNvNtNtCs99Oc0knXXS8_12librefit_lib7service6intake22validate_intake_target0B7_
FNDA:0,_RNCNvNtNtCs99Oc0knXXS8_12librefit_lib7service6intake22validate_intake_targets_0B7_
FNDA:33,_RNCNvNtNtCs99Oc0knXXS8_12librefit_lib7service6intake28create_calorie_tracker_entry0B7_
FNDA:1,_RNCNvNtNtCs99Oc0knXXS8_12librefit_lib7service6intake28delete_calorie_tracker_entry0B7_
FNDA:1,_RNCNvNtNtCs99Oc0knXXS8_12librefit_lib7service6intake28update_calorie_tracker_entry0B7_
FNDA:1,_RNCNvNtNtCs99Oc0knXXS8_12librefit_lib7service6intake34get_calorie_tracker_dates_in_range0B7_
FNDA:1,_RNCNvNtNtCs99Oc0knXXS8_12librefit_lib7service6intake34get_calorie_tracker_for_date_range0B7_
FNDA:11,_RNvMNtNtCs99Oc0knXXS8_12librefit_lib7service6intakeNtB2_6Intake12find_by_date
FNDA:28,_RNvMNtNtCs99Oc0knXXS8_12librefit_lib7service6intakeNtB2_6Intake18find_by_date_range
FNDA:2,_RNvMNtNtCs99Oc0knXXS8_12librefit_lib7service6intakeNtB2_6Intake3all
FNDA:69,_RNvMNtNtCs99Oc0knXXS8_12librefit_lib7service6intakeNtB2_6Intake6create
FNDA:2,_RNvMNtNtCs99Oc0knXXS8_12librefit_lib7service6intakeNtB2_6Intake6delete
FNDA:2,_RNvMNtNtCs99Oc0knXXS8_12librefit_lib7service6intakeNtB2_6Intake6update
FNDA:12,_RNvMs0_NtNtCs99Oc0knXXS8_12librefit_lib7service6intakeNtB5_12FoodCategory11find_by_key
FNDA:11,_RNvMs0_NtNtCs99Oc0knXXS8_12librefit_lib7service6intakeNtB5_12FoodCategory3all
FNDA:3,_RNvMs_NtNtCs99Oc0knXXS8_12librefit_lib7service6intakeNtB4_12IntakeTarget3all
FNDA:30,_RNvMs_NtNtCs99Oc0knXXS8_12librefit_lib7service6intakeNtB4_12IntakeTarget6create
FNDA:2,_RNvMs_NtNtCs99Oc0knXXS8_12librefit_lib7service6intakeNtB4_12IntakeTarget6delete
FNDA:1,_RNvMs_NtNtCs99Oc0knXXS8_12librefit_lib7service6intakeNtB4_12IntakeTarget6update
FNDA:25,_RNvMs_NtNtCs99Oc0knXXS8_12librefit_lib7service6intakeNtB4_12IntakeTarget9find_last
FNDA:1,_RNvNtNtCs99Oc0knXXS8_12librefit_lib7service6intake19get_food_categories
FNDA:89,_RNvNtNtCs99Oc0knXXS8_12librefit_lib7service6intake20validate_date_format
FNDA:14,_RNvNtNtCs99Oc0knXXS8_12librefit_lib7service6intake21create_calorie_target
FNDA:14,_RNvNtNtCs99Oc0knXXS8_12librefit_lib7service6intake22validate_intake_target
FNDA:2,_RNvNtNtCs99Oc0knXXS8_12librefit_lib7service6intake23get_last_calorie_target
FNDA:36,_RNvNtNtCs99Oc0knXXS8_12librefit_lib7service6intake28create_calorie_tracker_entry
FNDA:1,_RNvNtNtCs99Oc0knXXS8_12librefit_lib7service6intake28delete_calorie_tracker_entry
FNDA:1,_RNvNtNtCs99Oc0knXXS8_12librefit_lib7service6intake28update_calorie_tracker_entry
FNDA:1,_RNvNtNtCs99Oc0knXXS8_12librefit_lib7service6intake34get_calorie_tracker_dates_in_range
FNDA:1,_RNvNtNtCs99Oc0knXXS8_12librefit_lib7service6intake34get_calorie_tracker_for_date_range
FNDA:0,_RNCNCNvNtNtCskxb0fiIX3sM_12librefit_lib7service6intake34get_calorie_tracker_dates_in_range00B9_
FNDA:0,_RNCNvNtNtCskxb0fiIX3sM_12librefit_lib7service6intake21create_calorie_target0B7_
FNDA:0,_RNCNvNtNtCskxb0fiIX3sM_12librefit_lib7service6intake22validate_intake_target0B7_
FNDA:0,_RNCNvNtNtCskxb0fiIX3sM_12librefit_lib7service6intake22validate_intake_targets_0B7_
FNDA:0,_RNCNvNtNtCskxb0fiIX3sM_12librefit_lib7service6intake28create_calorie_tracker_entry0B7_
FNDA:0,_RNCNvNtNtCskxb0fiIX3sM_12librefit_lib7service6intake28delete_calorie_tracker_entry0B7_
FNDA:0,_RNCNvNtNtCskxb0fiIX3sM_12librefit_lib7service6intake28update_calorie_tracker_entry0B7_
FNDA:0,_RNCNvNtNtCskxb0fiIX3sM_12librefit_lib7service6intake34get_calorie_tracker_dates_in_range0B7_
FNDA:0,_RNCNvNtNtCskxb0fiIX3sM_12librefit_lib7service6intake34get_calorie_tracker_for_date_range0B7_
FNDA:0,_RNvMNtNtCskxb0fiIX3sM_12librefit_lib7service6intakeNtB2_6Intake12find_by_date
FNDA:0,_RNvMNtNtCskxb0fiIX3sM_12librefit_lib7service6intakeNtB2_6Intake18find_by_date_range
FNDA:0,_RNvMNtNtCskxb0fiIX3sM_12librefit_lib7service6intakeNtB2_6Intake3all
FNDA:0,_RNvMNtNtCskxb0fiIX3sM_12librefit_lib7service6intakeNtB2_6Intake6create
FNDA:0,_RNvMNtNtCskxb0fiIX3sM_12librefit_lib7service6intakeNtB2_6Intake6delete
FNDA:0,_RNvMNtNtCskxb0fiIX3sM_12librefit_lib7service6intakeNtB2_6Intake6update
FNDA:0,_RNvMs0_NtNtCskxb0fiIX3sM_12librefit_lib7service6intakeNtB5_12FoodCategory11find_by_key
FNDA:0,_RNvMs0_NtNtCskxb0fiIX3sM_12librefit_lib7service6intakeNtB5_12FoodCategory3all
FNDA:0,_RNvMs_NtNtCskxb0fiIX3sM_12librefit_lib7service6intakeNtB4_12IntakeTarget3all
FNDA:0,_RNvMs_NtNtCskxb0fiIX3sM_12librefit_lib7service6intakeNtB4_12IntakeTarget6create
FNDA:0,_RNvMs_NtNtCskxb0fiIX3sM_12librefit_lib7service6intakeNtB4_12IntakeTarget6delete
FNDA:0,_RNvMs_NtNtCskxb0fiIX3sM_12librefit_lib7service6intakeNtB4_12IntakeTarget6update
FNDA:0,_RNvMs_NtNtCskxb0fiIX3sM_12librefit_lib7service6intakeNtB4_12IntakeTarget9find_last
FNDA:0,_RNvNtNtCskxb0fiIX3sM_12librefit_lib7service6intake19get_food_categories
FNDA:0,_RNvNtNtCskxb0fiIX3sM_12librefit_lib7service6intake20validate_date_format
FNDA:0,_RNvNtNtCskxb0fiIX3sM_12librefit_lib7service6intake21create_calorie_target
FNDA:0,_RNvNtNtCskxb0fiIX3sM_12librefit_lib7service6intake22validate_intake_target
FNDA:0,_RNvNtNtCskxb0fiIX3sM_12librefit_lib7service6intake23get_last_calorie_target
FNDA:0,_RNvNtNtCskxb0fiIX3sM_12librefit_lib7service6intake28create_calorie_tracker_entry
FNDA:0,_RNvNtNtCskxb0fiIX3sM_12librefit_lib7service6intake28delete_calorie_tracker_entry
FNDA:0,_RNvNtNtCskxb0fiIX3sM_12librefit_lib7service6intake28update_calorie_tracker_entry
FNDA:0,_RNvNtNtCskxb0fiIX3sM_12librefit_lib7service6intake34get_calorie_tracker_dates_in_range
FNDA:0,_RNvNtNtCskxb0fiIX3sM_12librefit_lib7service6intake34get_calorie_tracker_for_date_range
FNDA:0,_RNvXININvNtNtCskxb0fiIX3sM_12librefit_lib7service6intake1__0pppENtB7_12FoodCategoryINtNtCs7M5B8tusgtg_6diesel11deserialize9QueryableTppEpE5buildBb_
FNDA:0,_RNvXININvNtNtCskxb0fiIX3sM_12librefit_lib7service6intakes2_1__0ppppppENtB7_6IntakeINtNtCs7M5B8tusgtg_6diesel11deserialize9QueryableTpppppEpE5buildBb_
FNDA:0,_RNvXININvNtNtCskxb0fiIX3sM_12librefit_lib7service6intakesa_1__0pppppppENtB7_12IntakeTargetINtNtCs7M5B8tusgtg_6diesel11deserialize9QueryableTppppppEpE5buildBb_
FNF:35
FNH:30
DA:15,0
DA:25,0
DA:74,0
DA:119,89
DA:120,89
DA:121,89
DA:122,0
DA:123,0
DA:124,0
DA:126,89
DA:129,14
DA:133,14
DA:134,1
DA:135,1
DA:136,1
DA:137,13
DA:140,13
DA:141,13
DA:142,13
DA:143,13
DA:145,13
DA:146,2
DA:147,11
DA:150,11
DA:151,11
DA:152,0
DA:153,11
DA:155,11
DA:156,14
DA:164,69
DA:165,69
DA:166,69
DA:167,69
DA:168,69
DA:169,69
DA:172,2
DA:173,2
DA:174,2
DA:177,2
DA:178,2
DA:179,2
DA:180,2
DA:181,2
DA:182,2
DA:183,2
DA:184,2
DA:185,2
DA:186,2
DA:189,2
DA:190,2
DA:191,2
DA:194,11
DA:195,11
DA:196,11
DA:197,11
DA:198,11
DA:201,28
DA:202,28
DA:203,28
DA:204,28
DA:205,28
DA:206,28
DA:207,28
DA:208,28
DA:209,28
DA:210,28
DA:215,30
DA:216,30
DA:217,30
DA:218,30
DA:219,30
DA:220,30
DA:223,3
DA:224,3
DA:225,3
DA:228,1
DA:229,1
DA:230,1
DA:231,1
DA:232,1
DA:233,1
DA:234,1
DA:235,1
DA:236,1
DA:237,1
DA:240,2
DA:241,2
DA:242,2
DA:245,25
DA:246,25
DA:247,25
DA:248,25
DA:249,25
DA:258,14
DA:259,14
DA:260,14
DA:261,14
DA:262,14
DA:263,3
DA:264,11
DA:266,11
DA:268,11
DA:269,14
DA:272,2
DA:273,2
DA:274,2
DA:278,36
DA:279,36
DA:280,36
DA:281,36
DA:282,36
DA:283,3
DA:284,33
DA:286,33
DA:288,33
DA:289,36
DA:293,1
DA:294,1
DA:295,1
DA:296,1
DA:297,1
DA:298,1
DA:299,0
DA:300,1
DA:302,1
DA:303,0
DA:308,1
DA:309,1
DA:313,1
DA:314,1
DA:315,1
DA:318,1
DA:319,1
DA:320,1
DA:321,1
DA:322,1
DA:323,1
DA:324,1
DA:328,1
DA:329,1
DA:330,1
DA:331,1
DA:332,1
DA:333,1
DA:334,0
DA:339,1
DA:340,1
DA:341,1
DA:342,1
DA:343,1
DA:344,1
DA:346,1
DA:347,1
DA:348,1
DA:349,1
DA:350,1
DA:358,11
DA:359,11
DA:360,11
DA:363,12
DA:364,12
DA:365,12
DA:366,12
DA:367,12
DA:375,1
DA:376,1
DA:377,1
BRF:0
BRH:0
LF:176
LH:164
end_of_record
SF:/Users/steff-man/Projects/librefit/src-tauri/src/service/progress.rs
FN:173,_RNCNCNvNtNtCs99Oc0knXXS8_12librefit_lib7service8progress16process_caloriess0_00B9_
FN:174,_RNCNCNvNtNtCs99Oc0knXXS8_12librefit_lib7service8progress16process_caloriess0_0s_0B9_
FN:56,_RNCNvMNtNtCs99Oc0knXXS8_12librefit_lib7service8progressNtB4_8Progress14build_for_date0B8_
FN:63,_RNCNvMNtNtCs99Oc0knXXS8_12librefit_lib7service8progressNtB4_8Progress14build_for_dates0_0B8_
FN:66,_RNCNvMNtNtCs99Oc0knXXS8_12librefit_lib7service8progressNtB4_8Progress14build_for_dates1_0B8_
FN:69,_RNCNvMNtNtCs99Oc0knXXS8_12librefit_lib7service8progressNtB4_8Progress14build_for_dates2_0B8_
FN:59,_RNCNvMNtNtCs99Oc0knXXS8_12librefit_lib7service8progressNtB4_8Progress14build_for_dates_0B8_
FN:216,_RNCNvNtNtCs99Oc0knXXS8_12librefit_lib7service8progress14process_weight0B7_
FN:225,_RNCNvNtNtCs99Oc0knXXS8_12librefit_lib7service8progress14process_weights_0B7_
FN:147,_RNCNvNtNtCs99Oc0knXXS8_12librefit_lib7service8progress16process_calories0B7_
FN:171,_RNCNvNtNtCs99Oc0knXXS8_12librefit_lib7service8progress16process_caloriess0_0B7_
FN:156,_RNCNvNtNtCs99Oc0knXXS8_12librefit_lib7service8progress16process_caloriess_0B7_
FN:256,_RNCNvNtNtCs99Oc0knXXS8_12librefit_lib7service8progress20get_tracker_progress0B7_
FN:54,_RNvMNtNtCs99Oc0knXXS8_12librefit_lib7service8progressNtB2_8Progress14build_for_date
FN:191,_RNvNtNtCs99Oc0knXXS8_12librefit_lib7service8progress14process_weight
FN:116,_RNvNtNtCs99Oc0knXXS8_12librefit_lib7service8progress16process_calories
FN:251,_RNvNtNtCs99Oc0knXXS8_12librefit_lib7service8progress20get_tracker_progress
FN:173,_RNCNCNvNtNtCskxb0fiIX3sM_12librefit_lib7service8progress16process_caloriess0_00B9_
FN:174,_RNCNCNvNtNtCskxb0fiIX3sM_12librefit_lib7service8progress16process_caloriess0_0s_0B9_
FN:56,_RNCNvMNtNtCskxb0fiIX3sM_12librefit_lib7service8progressNtB4_8Progress14build_for_date0B8_
FN:63,_RNCNvMNtNtCskxb0fiIX3sM_12librefit_lib7service8progressNtB4_8Progress14build_for_dates0_0B8_
FN:66,_RNCNvMNtNtCskxb0fiIX3sM_12librefit_lib7service8progressNtB4_8Progress14build_for_dates1_0B8_
FN:69,_RNCNvMNtNtCskxb0fiIX3sM_12librefit_lib7service8progressNtB4_8Progress14build_for_dates2_0B8_
FN:59,_RNCNvMNtNtCskxb0fiIX3sM_12librefit_lib7service8progressNtB4_8Progress14build_for_dates_0B8_
FN:216,_RNCNvNtNtCskxb0fiIX3sM_12librefit_lib7service8progress14process_weight0B7_
FN:225,_RNCNvNtNtCskxb0fiIX3sM_12librefit_lib7service8progress14process_weights_0B7_
FN:147,_RNCNvNtNtCskxb0fiIX3sM_12librefit_lib7service8progress16process_calories0B7_
FN:171,_RNCNvNtNtCskxb0fiIX3sM_12librefit_lib7service8progress16process_caloriess0_0B7_
FN:156,_RNCNvNtNtCskxb0fiIX3sM_12librefit_lib7service8progress16process_caloriess_0B7_
FN:256,_RNCNvNtNtCskxb0fiIX3sM_12librefit_lib7service8progress20get_tracker_progress0B7_
FN:54,_RNvMNtNtCskxb0fiIX3sM_12librefit_lib7service8progressNtB2_8Progress14build_for_date
FN:191,_RNvNtNtCskxb0fiIX3sM_12librefit_lib7service8progress14process_weight
FN:116,_RNvNtNtCskxb0fiIX3sM_12librefit_lib7service8progress16process_calories
FN:251,_RNvNtNtCskxb0fiIX3sM_12librefit_lib7service8progress20get_tracker_progress
FNDA:5,_RNCNCNvNtNtCs99Oc0knXXS8_12librefit_lib7service8progress16process_caloriess0_00B9_
FNDA:0,_RNCNCNvNtNtCs99Oc0knXXS8_12librefit_lib7service8progress16process_caloriess0_0s_0B9_
FNDA:1,_RNCNvMNtNtCs99Oc0knXXS8_12librefit_lib7service8progressNtB4_8Progress14build_for_date0B8_
FNDA:0,_RNCNvMNtNtCs99Oc0knXXS8_12librefit_lib7service8progressNtB4_8Progress14build_for_dates0_0B8_
FNDA:0,_RNCNvMNtNtCs99Oc0knXXS8_12librefit_lib7service8progressNtB4_8Progress14build_for_dates1_0B8_
FNDA:1,_RNCNvMNtNtCs99Oc0knXXS8_12librefit_lib7service8progressNtB4_8Progress14build_for_dates2_0B8_
FNDA:1,_RNCNvMNtNtCs99Oc0knXXS8_12librefit_lib7service8progressNtB4_8Progress14build_for_dates_0B8_
FNDA:0,_RNCNvNtNtCs99Oc0knXXS8_12librefit_lib7service8progress14process_weight0B7_
FNDA:4,_RNCNvNtNtCs99Oc0knXXS8_12librefit_lib7service8progress14process_weights_0B7_
FNDA:0,_RNCNvNtNtCs99Oc0knXXS8_12librefit_lib7service8progress16process_calories0B7_
FNDA:5,_RNCNvNtNtCs99Oc0knXXS8_12librefit_lib7service8progress16process_caloriess0_0B7_
FNDA:3,_RNCNvNtNtCs99Oc0knXXS8_12librefit_lib7service8progress16process_caloriess_0B7_
FNDA:0,_RNCNvNtNtCs99Oc0knXXS8_12librefit_lib7service8progress20get_tracker_progress0B7_
FNDA:9,_RNvMNtNtCs99Oc0knXXS8_12librefit_lib7service8progressNtB2_8Progress14build_for_date
FNDA:6,_RNvNtNtCs99Oc0knXXS8_12librefit_lib7service8progress14process_weight
FNDA:6,_RNvNtNtCs99Oc0knXXS8_12librefit_lib7service8progress16process_calories
FNDA:9,_RNvNtNtCs99Oc0knXXS8_12librefit_lib7service8progress20get_tracker_progress
FNDA:0,_RNCNCNvNtNtCskxb0fiIX3sM_12librefit_lib7service8progress16process_caloriess0_00B9_
FNDA:0,_RNCNCNvNtNtCskxb0fiIX3sM_12librefit_lib7service8progress16process_caloriess0_0s_0B9_
FNDA:0,_RNCNvMNtNtCskxb0fiIX3sM_12librefit_lib7service8progressNtB4_8Progress14build_for_date0B8_
FNDA:0,_RNCNvMNtNtCskxb0fiIX3sM_12librefit_lib7service8progressNtB4_8Progress14build_for_dates0_0B8_
FNDA:0,_RNCNvMNtNtCskxb0fiIX3sM_12librefit_lib7service8progressNtB4_8Progress14build_for_dates1_0B8_
FNDA:0,_RNCNvMNtNtCskxb0fiIX3sM_12librefit_lib7service8progressNtB4_8Progress14build_for_dates2_0B8_
FNDA:0,_RNCNvMNtNtCskxb0fiIX3sM_12librefit_lib7service8progressNtB4_8Progress14build_for_dates_0B8_
FNDA:0,_RNCNvNtNtCskxb0fiIX3sM_12librefit_lib7service8progress14process_weight0B7_
FNDA:0,_RNCNvNtNtCskxb0fiIX3sM_12librefit_lib7service8progress14process_weights_0B7_
FNDA:0,_RNCNvNtNtCskxb0fiIX3sM_12librefit_lib7service8progress16process_calories0B7_
FNDA:0,_RNCNvNtNtCskxb0fiIX3sM_12librefit_lib7service8progress16process_caloriess0_0B7_
FNDA:0,_RNCNvNtNtCskxb0fiIX3sM_12librefit_lib7service8progress16process_caloriess_0B7_
FNDA:0,_RNCNvNtNtCskxb0fiIX3sM_12librefit_lib7service8progress20get_tracker_progress0B7_
FNDA:0,_RNvMNtNtCskxb0fiIX3sM_12librefit_lib7service8progressNtB2_8Progress14build_for_date
FNDA:0,_RNvNtNtCskxb0fiIX3sM_12librefit_lib7service8progress14process_weight
FNDA:0,_RNvNtNtCskxb0fiIX3sM_12librefit_lib7service8progress16process_calories
FNDA:0,_RNvNtNtCskxb0fiIX3sM_12librefit_lib7service8progress20get_tracker_progress
FNF:17
FNH:11
DA:54,9
DA:55,8
DA:56,9
DA:58,7
DA:59,8
DA:61,7
DA:62,7
DA:63,7
DA:64,7
DA:65,7
DA:66,7
DA:68,7
DA:69,7
DA:71,6
DA:72,5
DA:73,5
DA:74,5
DA:76,1
DA:79,6
DA:81,6
DA:82,6
DA:83,6
DA:85,6
DA:86,6
DA:87,6
DA:89,6
DA:90,6
DA:92,6
DA:93,6
DA:94,6
DA:96,6
DA:97,6
DA:98,6
DA:100,6
DA:101,6
DA:102,6
DA:103,6
DA:104,6
DA:105,6
DA:106,6
DA:107,6
DA:108,9
DA:116,6
DA:117,6
DA:118,6
DA:119,6
DA:120,6
DA:121,4
DA:122,4
DA:123,4
DA:124,4
DA:125,4
DA:126,4
DA:127,4
DA:128,4
DA:129,4
DA:131,2
DA:132,2
DA:133,2
DA:134,2
DA:135,2
DA:137,7
DA:138,5
DA:140,5
DA:141,5
DA:143,5
DA:145,5
DA:146,5
DA:147,5
DA:148,0
DA:149,0
DA:150,0
DA:151,5
DA:154,2
DA:155,2
DA:156,3
DA:157,3
DA:158,3
DA:159,3
DA:160,3
DA:161,3
DA:162,3
DA:163,3
DA:164,3
DA:165,2
DA:166,2
DA:167,2
DA:169,2
DA:170,2
DA:171,5
DA:172,5
DA:173,5
DA:174,5
DA:175,5
DA:176,2
DA:178,2
DA:179,2
DA:180,2
DA:181,2
DA:182,2
DA:183,2
DA:184,2
DA:185,2
DA:186,2
DA:188,6
DA:191,6
DA:192,6
DA:193,4
DA:194,4
DA:195,4
DA:196,4
DA:197,4
DA:198,4
DA:199,4
DA:201,2
DA:202,2
DA:203,2
DA:206,2
DA:208,6
DA:209,4
DA:211,4
DA:212,4
DA:214,4
DA:215,4
DA:216,4
DA:217,0
DA:218,0
DA:219,0
DA:220,4
DA:223,2
DA:224,2
DA:225,4
DA:226,4
DA:227,4
DA:228,4
DA:229,4
DA:230,4
DA:231,4
DA:232,4
DA:233,4
DA:234,2
DA:236,2
DA:237,2
DA:238,2
DA:239,2
DA:240,2
DA:241,2
DA:242,2
DA:244,6
DA:251,9
DA:252,9
DA:254,9
DA:255,9
DA:256,9
DA:258,9
DA:259,9
BRF:0
BRH:0
LF:169
LH:157
end_of_record
SF:/Users/steff-man/Projects/librefit/src-tauri/src/service/tracker_history.rs
FN:30,_RNvMNtNtCs99Oc0knXXS8_12librefit_lib7service15tracker_historyNtB2_14TrackerHistory20build_for_date_range
FN:99,_RNvNtNtCs99Oc0knXXS8_12librefit_lib7service15tracker_history18interpolate_weight
FN:137,_RNvNtNtCs99Oc0knXXS8_12librefit_lib7service15tracker_history19get_tracker_history
FN:114,_RNvNtNtCs99Oc0knXXS8_12librefit_lib7service15tracker_history19interpolate_history
FN:84,_RNvNtNtCs99Oc0knXXS8_12librefit_lib7service15tracker_history20interpolate_calories
FN:36,_RNCNvMNtNtCs99Oc0knXXS8_12librefit_lib7service15tracker_historyNtB4_14TrackerHistory20build_for_date_range0B8_
FN:42,_RNCNvMNtNtCs99Oc0knXXS8_12librefit_lib7service15tracker_historyNtB4_14TrackerHistory20build_for_date_ranges0_0B8_
FN:49,_RNCNvMNtNtCs99Oc0knXXS8_12librefit_lib7service15tracker_historyNtB4_14TrackerHistory20build_for_date_ranges1_0B8_
FN:65,_RNCNvMNtNtCs99Oc0knXXS8_12librefit_lib7service15tracker_historyNtB4_14TrackerHistory20build_for_date_ranges3_0B8_
FN:38,_RNCNvMNtNtCs99Oc0knXXS8_12librefit_lib7service15tracker_historyNtB4_14TrackerHistory20build_for_date_ranges_0B8_
FN:150,_RNCNvNtNtCs99Oc0knXXS8_12librefit_lib7service15tracker_history19get_tracker_history0B7_
FN:36,_RNCNvMNtNtCskxb0fiIX3sM_12librefit_lib7service15tracker_historyNtB4_14TrackerHistory20build_for_date_range0B8_
FN:42,_RNCNvMNtNtCskxb0fiIX3sM_12librefit_lib7service15tracker_historyNtB4_14TrackerHistory20build_for_date_ranges0_0B8_
FN:49,_RNCNvMNtNtCskxb0fiIX3sM_12librefit_lib7service15tracker_historyNtB4_14TrackerHistory20build_for_date_ranges1_0B8_
FN:65,_RNCNvMNtNtCskxb0fiIX3sM_12librefit_lib7service15tracker_historyNtB4_14TrackerHistory20build_for_date_ranges3_0B8_
FN:38,_RNCNvMNtNtCskxb0fiIX3sM_12librefit_lib7service15tracker_historyNtB4_14TrackerHistory20build_for_date_ranges_0B8_
FN:150,_RNCNvNtNtCskxb0fiIX3sM_12librefit_lib7service15tracker_history19get_tracker_history0B7_
FN:30,_RNvMNtNtCskxb0fiIX3sM_12librefit_lib7service15tracker_historyNtB2_14TrackerHistory20build_for_date_range
FN:99,_RNvNtNtCskxb0fiIX3sM_12librefit_lib7service15tracker_history18interpolate_weight
FN:137,_RNvNtNtCskxb0fiIX3sM_12librefit_lib7service15tracker_history19get_tracker_history
FN:114,_RNvNtNtCskxb0fiIX3sM_12librefit_lib7service15tracker_history19interpolate_history
FN:84,_RNvNtNtCskxb0fiIX3sM_12librefit_lib7service15tracker_history20interpolate_calories
FNDA:11,_RNvMNtNtCs99Oc0knXXS8_12librefit_lib7service15tracker_historyNtB2_14TrackerHistory20build_for_date_range
FNDA:9,_RNvNtNtCs99Oc0knXXS8_12librefit_lib7service15tracker_history18interpolate_weight
FNDA:11,_RNvNtNtCs99Oc0knXXS8_12librefit_lib7service15tracker_history19get_tracker_history
FNDA:9,_RNvNtNtCs99Oc0knXXS8_12librefit_lib7service15tracker_history19interpolate_history
FNDA:9,_RNvNtNtCs99Oc0knXXS8_12librefit_lib7service15tracker_history20interpolate_calories
FNDA:1,_RNCNvMNtNtCs99Oc0knXXS8_12librefit_lib7service15tracker_historyNtB4_14TrackerHistory20build_for_date_range0B8_
FNDA:0,_RNCNvMNtNtCs99Oc0knXXS8_12librefit_lib7service15tracker_historyNtB4_14TrackerHistory20build_for_date_ranges0_0B8_
FNDA:0,_RNCNvMNtNtCs99Oc0knXXS8_12librefit_lib7service15tracker_historyNtB4_14TrackerHistory20build_for_date_ranges1_0B8_
FNDA:12,_RNCNvMNtNtCs99Oc0knXXS8_12librefit_lib7service15tracker_historyNtB4_14TrackerHistory20build_for_date_ranges3_0B8_
FNDA:1,_RNCNvMNtNtCs99Oc0knXXS8_12librefit_lib7service15tracker_historyNtB4_14TrackerHistory20build_for_date_ranges_0B8_
FNDA:0,_RNCNvNtNtCs99Oc0knXXS8_12librefit_lib7service15tracker_history19get_tracker_history0B7_
FNDA:0,_RNCNvMNtNtCskxb0fiIX3sM_12librefit_lib7service15tracker_historyNtB4_14TrackerHistory20build_for_date_range0B8_
FNDA:0,_RNCNvMNtNtCskxb0fiIX3sM_12librefit_lib7service15tracker_historyNtB4_14TrackerHistory20build_for_date_ranges0_0B8_
FNDA:0,_RNCNvMNtNtCskxb0fiIX3sM_12librefit_lib7service15tracker_historyNtB4_14TrackerHistory20build_for_date_ranges1_0B8_
FNDA:0,_RNCNvMNtNtCskxb0fiIX3sM_12librefit_lib7service15tracker_historyNtB4_14TrackerHistory20build_for_date_ranges3_0B8_
FNDA:0,_RNCNvMNtNtCskxb0fiIX3sM_12librefit_lib7service15tracker_historyNtB4_14TrackerHistory20build_for_date_ranges_0B8_
FNDA:0,_RNCNvNtNtCskxb0fiIX3sM_12librefit_lib7service15tracker_history19get_tracker_history0B7_
FNDA:0,_RNvMNtNtCskxb0fiIX3sM_12librefit_lib7service15tracker_historyNtB2_14TrackerHistory20build_for_date_range
FNDA:0,_RNvNtNtCskxb0fiIX3sM_12librefit_lib7service15tracker_history18interpolate_weight
FNDA:0,_RNvNtNtCskxb0fiIX3sM_12librefit_lib7service15tracker_history19get_tracker_history
FNDA:0,_RNvNtNtCskxb0fiIX3sM_12librefit_lib7service15tracker_history19interpolate_history
FNDA:0,_RNvNtNtCskxb0fiIX3sM_12librefit_lib7service15tracker_history20interpolate_calories
FNF:11
FNH:8
DA:30,11
DA:31,11
DA:32,11
DA:33,11
DA:34,11
DA:35,11
DA:36,11
DA:37,10
DA:38,10
DA:40,9
DA:41,9
DA:42,9
DA:44,9
DA:45,9
DA:46,9
DA:47,9
DA:49,9
DA:51,9
DA:52,9
DA:54,9
DA:55,9
DA:56,9
DA:57,9
DA:58,9
DA:61,9
DA:62,9
DA:63,9
DA:64,9
DA:65,12
DA:67,7
DA:68,2
DA:71,9
DA:72,9
DA:73,9
DA:74,9
DA:75,9
DA:76,9
DA:77,11
DA:84,9
DA:85,9
DA:87,28
DA:88,19
DA:89,19
DA:90,19
DA:91,19
DA:92,19
DA:93,19
DA:94,19
DA:96,9
DA:97,9
DA:99,9
DA:100,9
DA:102,12
DA:103,3
DA:104,3
DA:105,3
DA:106,3
DA:107,3
DA:108,3
DA:109,3
DA:111,9
DA:112,9
DA:114,9
DA:115,9
DA:116,9
DA:117,9
DA:118,9
DA:119,9
DA:120,9
DA:122,91
DA:123,82
DA:124,82
DA:125,82
DA:126,82
DA:127,82
DA:128,82
DA:129,82
DA:130,9
DA:137,11
DA:138,11
DA:139,11
DA:140,11
DA:141,11
DA:142,11
DA:143,0
DA:148,11
DA:149,11
DA:150,11
DA:152,11
DA:153,11
BRF:0
BRH:0
LF:96
LH:92
end_of_record
SF:/Users/steff-man/Projects/librefit/src-tauri/src/service/user.rs
FN:43,_RNCNvMNtNtCs99Oc0knXXS8_12librefit_lib7service4userNtB4_9LibreUser6update0B8_
FN:95,_RNCNvNtNtCs99Oc0knXXS8_12librefit_lib7service4user11update_user0B7_
FN:103,_RNCNvNtNtCs99Oc0knXXS8_12librefit_lib7service4user8get_user0B7_
FN:30,_RNvMNtNtCs99Oc0knXXS8_12librefit_lib7service4userNtB2_9LibreUser3get
FN:35,_RNvMNtNtCs99Oc0knXXS8_12librefit_lib7service4userNtB2_9LibreUser6update
FN:71,_RNvNtNtCs99Oc0knXXS8_12librefit_lib7service4user11update_user
FN:100,_RNvNtNtCs99Oc0knXXS8_12librefit_lib7service4user8get_user
FN:43,_RNCNvMNtNtCskxb0fiIX3sM_12librefit_lib7service4userNtB4_9LibreUser6update0B8_
FN:95,_RNCNvNtNtCskxb0fiIX3sM_12librefit_lib7service4user11update_user0B7_
FN:103,_RNCNvNtNtCskxb0fiIX3sM_12librefit_lib7service4user8get_user0B7_
FN:30,_RNvMNtNtCskxb0fiIX3sM_12librefit_lib7service4userNtB2_9LibreUser3get
FN:35,_RNvMNtNtCskxb0fiIX3sM_12librefit_lib7service4userNtB2_9LibreUser6update
FN:71,_RNvNtNtCskxb0fiIX3sM_12librefit_lib7service4user11update_user
FN:100,_RNvNtNtCskxb0fiIX3sM_12librefit_lib7service4user8get_user
FN:14,_RNvXININvNtNtCskxb0fiIX3sM_12librefit_lib7service4user1__0ppppENtB7_9LibreUserINtNtCs7M5B8tusgtg_6diesel11deserialize9QueryableTpppEpE5buildBb_
FNDA:27,_RNCNvMNtNtCs99Oc0knXXS8_12librefit_lib7service4userNtB4_9LibreUser6update0B8_
FNDA:6,_RNCNvNtNtCs99Oc0knXXS8_12librefit_lib7service4user11update_user0B7_
FNDA:2,_RNCNvNtNtCs99Oc0knXXS8_12librefit_lib7service4user8get_user0B7_
FNDA:14,_RNvMNtNtCs99Oc0knXXS8_12librefit_lib7service4userNtB2_9LibreUser3get
FNDA:27,_RNvMNtNtCs99Oc0knXXS8_12librefit_lib7service4userNtB2_9LibreUser6update
FNDA:9,_RNvNtNtCs99Oc0knXXS8_12librefit_lib7service4user11update_user
FNDA:2,_RNvNtNtCs99Oc0knXXS8_12librefit_lib7service4user8get_user
FNDA:0,_RNCNvMNtNtCskxb0fiIX3sM_12librefit_lib7service4userNtB4_9LibreUser6update0B8_
FNDA:0,_RNCNvNtNtCskxb0fiIX3sM_12librefit_lib7service4user11update_user0B7_
FNDA:0,_RNCNvNtNtCskxb0fiIX3sM_12librefit_lib7service4user8get_user0B7_
FNDA:0,_RNvMNtNtCskxb0fiIX3sM_12librefit_lib7service4userNtB2_9LibreUser3get
FNDA:0,_RNvMNtNtCskxb0fiIX3sM_12librefit_lib7service4userNtB2_9LibreUser6update
FNDA:0,_RNvNtNtCskxb0fiIX3sM_12librefit_lib7service4user11update_user
FNDA:0,_RNvNtNtCskxb0fiIX3sM_12librefit_lib7service4user8get_user
FNDA:0,_RNvXININvNtNtCskxb0fiIX3sM_12librefit_lib7service4user1__0ppppENtB7_9LibreUserINtNtCs7M5B8tusgtg_6diesel11deserialize9QueryableTpppEpE5buildBb_
FNF:8
FNH:7
DA:14,0
DA:30,14
DA:31,14
DA:32,14
DA:35,27
DA:36,27
DA:37,27
DA:38,27
DA:39,27
DA:40,27
DA:41,27
DA:42,27
DA:43,27
DA:44,4
DA:45,4
DA:46,4
DA:48,4
DA:49,4
DA:50,4
DA:51,4
DA:53,23
DA:54,23
DA:55,23
DA:56,23
DA:57,23
DA:58,23
DA:59,23
DA:60,23
DA:61,27
DA:62,27
DA:71,9
DA:72,9
DA:73,9
DA:74,9
DA:75,9
DA:77,9
DA:78,1
DA:79,8
DA:80,8
DA:81,1
DA:82,7
DA:85,7
DA:86,1
DA:87,6
DA:89,6
DA:90,0
DA:95,6
DA:96,9
DA:100,2
DA:101,2
DA:103,2
DA:104,2
BRF:0
BRH:0
LF:56
LH:53
end_of_record
SF:/Users/steff-man/Projects/librefit/src-tauri/src/service/weight.rs
FN:252,_RNCNvNtNtCs99Oc0knXXS8_12librefit_lib7service6weight20create_weight_target0B7_
FN:286,_RNCNvNtNtCs99Oc0knXXS8_12librefit_lib7service6weight20delete_weight_target0B7_
FN:280,_RNCNvNtNtCs99Oc0knXXS8_12librefit_lib7service6weight20update_weight_target0B7_
FN:108,_RNCNvNtNtCs99Oc0knXXS8_12librefit_lib7service6weight22validate_weight_target0B7_
FN:110,_RNCNvNtNtCs99Oc0knXXS8_12librefit_lib7service6weight22validate_weight_targets_0B7_
FN:301,_RNCNvNtNtCs99Oc0knXXS8_12librefit_lib7service6weight27create_weight_tracker_entry0B7_
FN:327,_RNCNvNtNtCs99Oc0knXXS8_12librefit_lib7service6weight27delete_weight_tracker_entry0B7_
FN:321,_RNCNvNtNtCs99Oc0knXXS8_12librefit_lib7service6weight27update_weight_tracker_entry0B7_
FN:336,_RNCNvNtNtCs99Oc0knXXS8_12librefit_lib7service6weight33get_weight_tracker_for_date_range0B7_
FN:171,_RNvMNtNtCs99Oc0knXXS8_12librefit_lib7service6weightNtB2_13WeightTracker12find_by_date
FN:178,_RNvMNtNtCs99Oc0knXXS8_12librefit_lib7service6weightNtB2_13WeightTracker18find_by_date_range
FN:148,_RNvMNtNtCs99Oc0knXXS8_12librefit_lib7service6weightNtB2_13WeightTracker3all
FN:140,_RNvMNtNtCs99Oc0knXXS8_12librefit_lib7service6weightNtB2_13WeightTracker6create
FN:165,_RNvMNtNtCs99Oc0knXXS8_12librefit_lib7service6weightNtB2_13WeightTracker6delete
FN:153,_RNvMNtNtCs99Oc0knXXS8_12librefit_lib7service6weightNtB2_13WeightTracker6update
FN:205,_RNvMs_NtNtCs99Oc0knXXS8_12librefit_lib7service6weightNtB4_12WeightTarget10get_latest
FN:200,_RNvMs_NtNtCs99Oc0knXXS8_12librefit_lib7service6weightNtB4_12WeightTarget3all
FN:192,_RNvMs_NtNtCs99Oc0knXXS8_12librefit_lib7service6weightNtB4_12WeightTarget6create
FN:224,_RNvMs_NtNtCs99Oc0knXXS8_12librefit_lib7service6weightNtB4_12WeightTarget6delete
FN:212,_RNvMs_NtNtCs99Oc0knXXS8_12librefit_lib7service6weightNtB4_12WeightTarget6update
FN:229,_RNvMs_NtNtCs99Oc0knXXS8_12librefit_lib7service6weightNtB4_12WeightTarget9find_last
FN:257,_RNvNtNtCs99Oc0knXXS8_12librefit_lib7service6weight18get_weight_targets
FN:242,_RNvNtNtCs99Oc0knXXS8_12librefit_lib7service6weight20create_weight_target
FN:285,_RNvNtNtCs99Oc0knXXS8_12librefit_lib7service6weight20delete_weight_target
FN:269,_RNvNtNtCs99Oc0knXXS8_12librefit_lib7service6weight20update_weight_target
FN:93,_RNvNtNtCs99Oc0knXXS8_12librefit_lib7service6weight20validate_date_format
FN:263,_RNvNtNtCs99Oc0knXXS8_12librefit_lib7service6weight22get_last_weight_target
FN:103,_RNvNtNtCs99Oc0knXXS8_12librefit_lib7service6weight22validate_weight_target
FN:291,_RNvNtNtCs99Oc0knXXS8_12librefit_lib7service6weight27create_weight_tracker_entry
FN:326,_RNvNtNtCs99Oc0knXXS8_12librefit_lib7service6weight27delete_weight_tracker_entry
FN:306,_RNvNtNtCs99Oc0knXXS8_12librefit_lib7service6weight27update_weight_tracker_entry
FN:331,_RNvNtNtCs99Oc0knXXS8_12librefit_lib7service6weight33get_weight_tracker_for_date_range
FN:252,_RNCNvNtNtCskxb0fiIX3sM_12librefit_lib7service6weight20create_weight_target0B7_
FN:286,_RNCNvNtNtCskxb0fiIX3sM_12librefit_lib7service6weight20delete_weight_target0B7_
FN:280,_RNCNvNtNtCskxb0fiIX3sM_12librefit_lib7service6weight20update_weight_target0B7_
FN:108,_RNCNvNtNtCskxb0fiIX3sM_12librefit_lib7service6weight22validate_weight_target0B7_
FN:110,_RNCNvNtNtCskxb0fiIX3sM_12librefit_lib7service6weight22validate_weight_targets_0B7_
FN:301,_RNCNvNtNtCskxb0fiIX3sM_12librefit_lib7service6weight27create_weight_tracker_entry0B7_
FN:327,_RNCNvNtNtCskxb0fiIX3sM_12librefit_lib7service6weight27delete_weight_tracker_entry0B7_
FN:321,_RNCNvNtNtCskxb0fiIX3sM_12librefit_lib7service6weight27update_weight_tracker_entry0B7_
FN:336,_RNCNvNtNtCskxb0fiIX3sM_12librefit_lib7service6weight33get_weight_tracker_for_date_range0B7_
FN:171,_RNvMNtNtCskxb0fiIX3sM_12librefit_lib7service6weightNtB2_13WeightTracker12find_by_date
FN:178,_RNvMNtNtCskxb0fiIX3sM_12librefit_lib7service6weightNtB2_13WeightTracker18find_by_date_range
FN:148,_RNvMNtNtCskxb0fiIX3sM_12librefit_lib7service6weightNtB2_13WeightTracker3all
FN:140,_RNvMNtNtCskxb0fiIX3sM_12librefit_lib7service6weightNtB2_13WeightTracker6create
FN:165,_RNvMNtNtCskxb0fiIX3sM_12librefit_lib7service6weightNtB2_13WeightTracker6delete
FN:153,_RNvMNtNtCskxb0fiIX3sM_12librefit_lib7service6weightNtB2_13WeightTracker6update
FN:205,_RNvMs_NtNtCskxb0fiIX3sM_12librefit_lib7service6weightNtB4_12WeightTarget10get_latest
FN:200,_RNvMs_NtNtCskxb0fiIX3sM_12librefit_lib7service6weightNtB4_12WeightTarget3all
FN:192,_RNvMs_NtNtCskxb0fiIX3sM_12librefit_lib7service6weightNtB4_12WeightTarget6create
FN:224,_RNvMs_NtNtCskxb0fiIX3sM_12librefit_lib7service6weightNtB4_12WeightTarget6delete
FN:212,_RNvMs_NtNtCskxb0fiIX3sM_12librefit_lib7service6weightNtB4_12WeightTarget6update
FN:229,_RNvMs_NtNtCskxb0fiIX3sM_12librefit_lib7service6weightNtB4_12WeightTarget9find_last
FN:257,_RNvNtNtCskxb0fiIX3sM_12librefit_lib7service6weight18get_weight_targets
FN:242,_RNvNtNtCskxb0fiIX3sM_12librefit_lib7service6weight20create_weight_target
FN:285,_RNvNtNtCskxb0fiIX3sM_12librefit_lib7service6weight20delete_weight_target
FN:269,_RNvNtNtCskxb0fiIX3sM_12librefit_lib7service6weight20update_weight_target
FN:93,_RNvNtNtCskxb0fiIX3sM_12librefit_lib7service6weight20validate_date_format
FN:263,_RNvNtNtCskxb0fiIX3sM_12librefit_lib7service6weight22get_last_weight_target
FN:103,_RNvNtNtCskxb0fiIX3sM_12librefit_lib7service6weight22validate_weight_target
FN:291,_RNvNtNtCskxb0fiIX3sM_12librefit_lib7service6weight27create_weight_tracker_entry
FN:326,_RNvNtNtCskxb0fiIX3sM_12librefit_lib7service6weight27delete_weight_tracker_entry
FN:306,_RNvNtNtCskxb0fiIX3sM_12librefit_lib7service6weight27update_weight_tracker_entry
FN:331,_RNvNtNtCskxb0fiIX3sM_12librefit_lib7service6weight33get_weight_tracker_for_date_range
FN:16,_RNvXININvNtNtCskxb0fiIX3sM_12librefit_lib7service6weight1__0ppppENtB7_13WeightTrackerINtNtCs7M5B8tusgtg_6diesel11deserialize9QueryableTpppEpE5buildBb_
FN:48,_RNvXININvNtNtCskxb0fiIX3sM_12librefit_lib7service6weights6_1__0pppppppENtB7_12WeightTargetINtNtCs7M5B8tusgtg_6diesel11deserialize9QueryableTppppppEpE5buildBb_
FNDA:9,_RNCNvNtNtCs99Oc0knXXS8_12librefit_lib7service6weight20create_weight_target0B7_
FNDA:0,_RNCNvNtNtCs99Oc0knXXS8_12librefit_lib7service6weight20delete_weight_target0B7_
FNDA:0,_RNCNvNtNtCs99Oc0knXXS8_12librefit_lib7service6weight20update_weight_target0B7_
FNDA:0,_RNCNvNtNtCs99Oc0knXXS8_12librefit_lib7service6weight22validate_weight_target0B7_
FNDA:0,_RNCNvNtNtCs99Oc0knXXS8_12librefit_lib7service6weight22validate_weight_targets_0B7_
FNDA:16,_RNCNvNtNtCs99Oc0knXXS8_12librefit_lib7service6weight27create_weight_tracker_entry0B7_
FNDA:2,_RNCNvNtNtCs99Oc0knXXS8_12librefit_lib7service6weight27delete_weight_tracker_entry0B7_
FNDA:1,_RNCNvNtNtCs99Oc0knXXS8_12librefit_lib7service6weight27update_weight_tracker_entry0B7_
FNDA:3,_RNCNvNtNtCs99Oc0knXXS8_12librefit_lib7service6weight33get_weight_tracker_for_date_range0B7_
FNDA:11,_RNvMNtNtCs99Oc0knXXS8_12librefit_lib7service6weightNtB2_13WeightTracker12find_by_date
FNDA:29,_RNvMNtNtCs99Oc0knXXS8_12librefit_lib7service6weightNtB2_13WeightTracker18find_by_date_range
FNDA:4,_RNvMNtNtCs99Oc0knXXS8_12librefit_lib7service6weightNtB2_13WeightTracker3all
FNDA:46,_RNvMNtNtCs99Oc0knXXS8_12librefit_lib7service6weightNtB2_13WeightTracker6create
FNDA:3,_RNvMNtNtCs99Oc0knXXS8_12librefit_lib7service6weightNtB2_13WeightTracker6delete
FNDA:2,_RNvMNtNtCs99Oc0knXXS8_12librefit_lib7service6weightNtB2_13WeightTracker6update
FNDA:2,_RNvMs_NtNtCs99Oc0knXXS8_12librefit_lib7service6weightNtB4_12WeightTarget10get_latest
FNDA:3,_RNvMs_NtNtCs99Oc0knXXS8_12librefit_lib7service6weightNtB4_12WeightTarget3all
FNDA:30,_RNvMs_NtNtCs99Oc0knXXS8_12librefit_lib7service6weightNtB4_12WeightTarget6create
FNDA:2,_RNvMs_NtNtCs99Oc0knXXS8_12librefit_lib7service6weightNtB4_12WeightTarget6delete
FNDA:1,_RNvMs_NtNtCs99Oc0knXXS8_12librefit_lib7service6weightNtB4_12WeightTarget6update
FNDA:21,_RNvMs_NtNtCs99Oc0knXXS8_12librefit_lib7service6weightNtB4_12WeightTarget9find_last
FNDA:0,_RNvNtNtCs99Oc0knXXS8_12librefit_lib7service6weight18get_weight_targets
FNDA:15,_RNvNtNtCs99Oc0knXXS8_12librefit_lib7service6weight20create_weight_target
FNDA:0,_RNvNtNtCs99Oc0knXXS8_12librefit_lib7service6weight20delete_weight_target
FNDA:0,_RNvNtNtCs99Oc0knXXS8_12librefit_lib7service6weight20update_weight_target
FNDA:73,_RNvNtNtCs99Oc0knXXS8_12librefit_lib7service6weight20validate_date_format
FNDA:0,_RNvNtNtCs99Oc0knXXS8_12librefit_lib7service6weight22get_last_weight_target
FNDA:11,_RNvNtNtCs99Oc0knXXS8_12librefit_lib7service6weight22validate_weight_target
FNDA:18,_RNvNtNtCs99Oc0knXXS8_12librefit_lib7service6weight27create_weight_tracker_entry
FNDA:2,_RNvNtNtCs99Oc0knXXS8_12librefit_lib7service6weight27delete_weight_tracker_entry
FNDA:2,_RNvNtNtCs99Oc0knXXS8_12librefit_lib7service6weight27update_weight_tracker_entry
FNDA:3,_RNvNtNtCs99Oc0knXXS8_12librefit_lib7service6weight33get_weight_tracker_for_date_range
FNDA:0,_RNCNvNtNtCskxb0fiIX3sM_12librefit_lib7service6weight20create_weight_target0B7_
FNDA:0,_RNCNvNtNtCskxb0fiIX3sM_12librefit_lib7service6weight20delete_weight_target0B7_
FNDA:0,_RNCNvNtNtCskxb0fiIX3sM_12librefit_lib7service6weight20update_weight_target0B7_
FNDA:0,_RNCNvNtNtCskxb0fiIX3sM_12librefit_lib7service6weight22validate_weight_target0B7_
FNDA:0,_RNCNvNtNtCskxb0fiIX3sM_12librefit_lib7service6weight22validate_weight_targets_0B7_
FNDA:0,_RNCNvNtNtCskxb0fiIX3sM_12librefit_lib7service6weight27create_weight_tracker_entry0B7_
FNDA:0,_RNCNvNtNtCskxb0fiIX3sM_12librefit_lib7service6weight27delete_weight_tracker_entry0B7_
FNDA:0,_RNCNvNtNtCskxb0fiIX3sM_12librefit_lib7service6weight27update_weight_tracker_entry0B7_
FNDA:0,_RNCNvNtNtCskxb0fiIX3sM_12librefit_lib7service6weight33get_weight_tracker_for_date_range0B7_
FNDA:0,_RNvMNtNtCskxb0fiIX3sM_12librefit_lib7service6weightNtB2_13WeightTracker12find_by_date
FNDA:0,_RNvMNtNtCskxb0fiIX3sM_12librefit_lib7service6weightNtB2_13WeightTracker18find_by_date_range
FNDA:0,_RNvMNtNtCskxb0fiIX3sM_12librefit_lib7service6weightNtB2_13WeightTracker3all
FNDA:0,_RNvMNtNtCskxb0fiIX3sM_12librefit_lib7service6weightNtB2_13WeightTracker6create
FNDA:0,_RNvMNtNtCskxb0fiIX3sM_12librefit_lib7service6weightNtB2_13WeightTracker6delete
FNDA:0,_RNvMNtNtCskxb0fiIX3sM_12librefit_lib7service6weightNtB2_13WeightTracker6update
FNDA:0,_RNvMs_NtNtCskxb0fiIX3sM_12librefit_lib7service6weightNtB4_12WeightTarget10get_latest
FNDA:0,_RNvMs_NtNtCskxb0fiIX3sM_12librefit_lib7service6weightNtB4_12WeightTarget3all
FNDA:0,_RNvMs_NtNtCskxb0fiIX3sM_12librefit_lib7service6weightNtB4_12WeightTarget6create
FNDA:0,_RNvMs_NtNtCskxb0fiIX3sM_12librefit_lib7service6weightNtB4_12WeightTarget6delete
FNDA:0,_RNvMs_NtNtCskxb0fiIX3sM_12librefit_lib7service6weightNtB4_12WeightTarget6update
FNDA:0,_RNvMs_NtNtCskxb0fiIX3sM_12librefit_lib7service6weightNtB4_12WeightTarget9find_last
FNDA:0,_RNvNtNtCskxb0fiIX3sM_12librefit_lib7service6weight18get_weight_targets
FNDA:0,_RNvNtNtCskxb0fiIX3sM_12librefit_lib7service6weight20create_weight_target
FNDA:0,_RNvNtNtCskxb0fiIX3sM_12librefit_lib7service6weight20delete_weight_target
FNDA:0,_RNvNtNtCskxb0fiIX3sM_12librefit_lib7service6weight20update_weight_target
FNDA:0,_RNvNtNtCskxb0fiIX3sM_12librefit_lib7service6weight20validate_date_format
FNDA:0,_RNvNtNtCskxb0fiIX3sM_12librefit_lib7service6weight22get_last_weight_target
FNDA:0,_RNvNtNtCskxb0fiIX3sM_12librefit_lib7service6weight22validate_weight_target
FNDA:0,_RNvNtNtCskxb0fiIX3sM_12librefit_lib7service6weight27create_weight_tracker_entry
FNDA:0,_RNvNtNtCskxb0fiIX3sM_12librefit_lib7service6weight27delete_weight_tracker_entry
FNDA:0,_RNvNtNtCskxb0fiIX3sM_12librefit_lib7service6weight27update_weight_tracker_entry
FNDA:0,_RNvNtNtCskxb0fiIX3sM_12librefit_lib7service6weight33get_weight_tracker_for_date_range
FNDA:0,_RNvXININvNtNtCskxb0fiIX3sM_12librefit_lib7service6weight1__0ppppENtB7_13WeightTrackerINtNtCs7M5B8tusgtg_6diesel11deserialize9QueryableTpppEpE5buildBb_
FNDA:0,_RNvXININvNtNtCskxb0fiIX3sM_12librefit_lib7service6weights6_1__0pppppppENtB7_12WeightTargetINtNtCs7M5B8tusgtg_6diesel11deserialize9QueryableTppppppEpE5buildBb_
FNF:34
FNH:24
DA:16,0
DA:48,0
DA:93,73
DA:94,73
DA:95,73
DA:96,0
DA:97,0
DA:98,0
DA:100,73
DA:103,11
DA:107,11
DA:108,11
DA:109,11
DA:110,11
DA:112,11
DA:113,2
DA:114,9
DA:117,9
DA:118,9
DA:119,0
DA:120,9
DA:123,9
DA:124,9
DA:125,9
DA:126,0
DA:127,0
DA:128,0
DA:129,9
DA:131,9
DA:132,11
DA:140,46
DA:141,46
DA:142,46
DA:143,46
DA:144,46
DA:145,46
DA:148,4
DA:149,4
DA:150,4
DA:153,2
DA:154,2
DA:155,2
DA:156,2
DA:157,2
DA:158,2
DA:159,2
DA:160,2
DA:161,2
DA:162,2
DA:165,3
DA:166,3
DA:167,3
DA:168,3
DA:171,11
DA:172,11
DA:173,11
DA:174,11
DA:175,11
DA:178,29
DA:179,29
DA:180,29
DA:181,29
DA:182,29
DA:183,29
DA:184,29
DA:185,29
DA:186,29
DA:187,29
DA:192,30
DA:193,30
DA:194,30
DA:195,30
DA:196,30
DA:197,30
DA:200,3
DA:201,3
DA:202,3
DA:205,2
DA:206,2
DA:207,2
DA:208,2
DA:209,2
DA:212,1
DA:213,1
DA:214,1
DA:215,1
DA:216,1
DA:217,1
DA:218,1
DA:219,1
DA:220,1
DA:221,1
DA:224,2
DA:225,2
DA:226,2
DA:229,21
DA:230,21
DA:231,21
DA:232,21
DA:233,21
DA:242,15
DA:243,15
DA:244,15
DA:245,15
DA:246,15
DA:247,6
DA:248,9
DA:250,9
DA:252,9
DA:253,15
DA:257,0
DA:258,0
DA:259,0
DA:263,0
DA:264,0
DA:265,0
DA:269,0
DA:270,0
DA:271,0
DA:272,0
DA:273,0
DA:274,0
DA:275,0
DA:276,0
DA:278,0
DA:280,0
DA:281,0
DA:285,0
DA:286,0
DA:287,0
DA:291,18
DA:292,18
DA:293,18
DA:294,18
DA:295,18
DA:296,2
DA:297,16
DA:299,16
DA:301,16
DA:302,18
DA:306,2
DA:307,2
DA:308,2
DA:309,2
DA:310,2
DA:311,2
DA:312,1
DA:313,1
DA:315,1
DA:316,0
DA:321,1
DA:322,2
DA:326,2
DA:327,2
DA:328,2
DA:331,3
DA:332,3
DA:333,3
DA:334,3
DA:335,3
DA:336,3
DA:337,3
BRF:0
BRH:0
LF:171
LH:137
end_of_record
SF:/Users/steff-man/Projects/librefit/src-tauri/src/service/wizard.rs
FN:563,_RNCNvNtNtCs99Oc0knXXS8_12librefit_lib7service6wizard21wizard_create_targets0B7_
FN:572,_RNCNvNtNtCs99Oc0knXXS8_12librefit_lib7service6wizard21wizard_create_targetss0_0B7_
FN:565,_RNCNvNtNtCs99Oc0knXXS8_12librefit_lib7service6wizard21wizard_create_targetss_0B7_
FN:265,_RNCNvNtNtCs99Oc0knXXS8_12librefit_lib7service6wizard25calculate_for_target_date0B7_
FN:326,_RNCNvNtNtCs99Oc0knXXS8_12librefit_lib7service6wizard25calculate_for_target_dates_0B7_
FN:67,_RNvMNtNtCs99Oc0knXXS8_12librefit_lib7service6wizardNtB2_12WizardResult8specific
FN:443,_RNvNtNtCs99Oc0knXXS8_12librefit_lib7service6wizard13calculate_bmi
FN:419,_RNvNtNtCs99Oc0knXXS8_12librefit_lib7service6wizard13calculate_bmr
FN:428,_RNvNtNtCs99Oc0knXXS8_12librefit_lib7service6wizard14calculate_tdee
FN:436,_RNvNtNtCs99Oc0knXXS8_12librefit_lib7service6wizard16calculate_target
FN:432,_RNvNtNtCs99Oc0knXXS8_12librefit_lib7service6wizard17calculate_deficit
FN:462,_RNvNtNtCs99Oc0knXXS8_12librefit_lib7service6wizard20calculate_target_bmi
FN:547,_RNvNtNtCs99Oc0knXXS8_12librefit_lib7service6wizard21wizard_calculate_tdee
FN:558,_RNvNtNtCs99Oc0knXXS8_12librefit_lib7service6wizard21wizard_create_targets
FN:447,_RNvNtNtCs99Oc0knXXS8_12librefit_lib7service6wizard22calculate_bmi_category
FN:517,_RNvNtNtCs99Oc0knXXS8_12librefit_lib7service6wizard23calculate_duration_days
FN:466,_RNvNtNtCs99Oc0knXXS8_12librefit_lib7service6wizard23calculate_target_weight
FN:169,_RNvNtNtCs99Oc0knXXS8_12librefit_lib7service6wizard23validate_activity_level
FN:524,_RNvNtNtCs99Oc0knXXS8_12librefit_lib7service6wizard24calculate_recommendation
FN:238,_RNvNtNtCs99Oc0knXXS8_12librefit_lib7service6wizard25calculate_for_target_date
FN:339,_RNvNtNtCs99Oc0knXXS8_12librefit_lib7service6wizard27calculate_for_target_weight
FN:478,_RNvNtNtCs99Oc0knXXS8_12librefit_lib7service6wizard29calculate_duration_days_total
FN:470,_RNvNtNtCs99Oc0knXXS8_12librefit_lib7service6wizard29calculate_target_weight_lower
FN:474,_RNvNtNtCs99Oc0knXXS8_12librefit_lib7service6wizard29calculate_target_weight_upper
FN:576,_RNvNtNtCs99Oc0knXXS8_12librefit_lib7service6wizard32wizard_calculate_for_target_date
FN:589,_RNvNtNtCs99Oc0knXXS8_12librefit_lib7service6wizard34wizard_calculate_for_target_weight
FN:180,_RNvNtNtCs99Oc0knXXS8_12librefit_lib7service6wizard9calculate
FN:563,_RNCNvNtNtCskxb0fiIX3sM_12librefit_lib7service6wizard21wizard_create_targets0B7_
FN:572,_RNCNvNtNtCskxb0fiIX3sM_12librefit_lib7service6wizard21wizard_create_targetss0_0B7_
FN:565,_RNCNvNtNtCskxb0fiIX3sM_12librefit_lib7service6wizard21wizard_create_targetss_0B7_
FN:265,_RNCNvNtNtCskxb0fiIX3sM_12librefit_lib7service6wizard25calculate_for_target_date0B7_
FN:326,_RNCNvNtNtCskxb0fiIX3sM_12librefit_lib7service6wizard25calculate_for_target_dates_0B7_
FN:67,_RNvMNtNtCskxb0fiIX3sM_12librefit_lib7service6wizardNtB2_12WizardResult8specific
FN:443,_RNvNtNtCskxb0fiIX3sM_12librefit_lib7service6wizard13calculate_bmi
FN:419,_RNvNtNtCskxb0fiIX3sM_12librefit_lib7service6wizard13calculate_bmr
FN:428,_RNvNtNtCskxb0fiIX3sM_12librefit_lib7service6wizard14calculate_tdee
FN:436,_RNvNtNtCskxb0fiIX3sM_12librefit_lib7service6wizard16calculate_target
FN:432,_RNvNtNtCskxb0fiIX3sM_12librefit_lib7service6wizard17calculate_deficit
FN:462,_RNvNtNtCskxb0fiIX3sM_12librefit_lib7service6wizard20calculate_target_bmi
FN:547,_RNvNtNtCskxb0fiIX3sM_12librefit_lib7service6wizard21wizard_calculate_tdee
FN:558,_RNvNtNtCskxb0fiIX3sM_12librefit_lib7service6wizard21wizard_create_targets
FN:447,_RNvNtNtCskxb0fiIX3sM_12librefit_lib7service6wizard22calculate_bmi_category
FN:517,_RNvNtNtCskxb0fiIX3sM_12librefit_lib7service6wizard23calculate_duration_days
FN:466,_RNvNtNtCskxb0fiIX3sM_12librefit_lib7service6wizard23calculate_target_weight
FN:169,_RNvNtNtCskxb0fiIX3sM_12librefit_lib7service6wizard23validate_activity_level
FN:524,_RNvNtNtCskxb0fiIX3sM_12librefit_lib7service6wizard24calculate_recommendation
FN:238,_RNvNtNtCskxb0fiIX3sM_12librefit_lib7service6wizard25calculate_for_target_date
FN:339,_RNvNtNtCskxb0fiIX3sM_12librefit_lib7service6wizard27calculate_for_target_weight
FN:478,_RNvNtNtCskxb0fiIX3sM_12librefit_lib7service6wizard29calculate_duration_days_total
FN:470,_RNvNtNtCskxb0fiIX3sM_12librefit_lib7service6wizard29calculate_target_weight_lower
FN:474,_RNvNtNtCskxb0fiIX3sM_12librefit_lib7service6wizard29calculate_target_weight_upper
FN:576,_RNvNtNtCskxb0fiIX3sM_12librefit_lib7service6wizard32wizard_calculate_for_target_date
FN:589,_RNvNtNtCskxb0fiIX3sM_12librefit_lib7service6wizard34wizard_calculate_for_target_weight
FN:180,_RNvNtNtCskxb0fiIX3sM_12librefit_lib7service6wizard9calculate
FNDA:0,_RNCNvNtNtCs99Oc0knXXS8_12librefit_lib7service6wizard21wizard_create_targets0B7_
FNDA:0,_RNCNvNtNtCs99Oc0knXXS8_12librefit_lib7service6wizard21wizard_create_targetss0_0B7_
FNDA:2,_RNCNvNtNtCs99Oc0knXXS8_12librefit_lib7service6wizard21wizard_create_targetss_0B7_
FNDA:14,_RNCNvNtNtCs99Oc0knXXS8_12librefit_lib7service6wizard25calculate_for_target_date0B7_
FNDA:14,_RNCNvNtNtCs99Oc0knXXS8_12librefit_lib7service6wizard25calculate_for_target_dates_0B7_
FNDA:14,_RNvMNtNtCs99Oc0knXXS8_12librefit_lib7service6wizardNtB2_12WizardResult8specific
FNDA:31,_RNvNtNtCs99Oc0knXXS8_12librefit_lib7service6wizard13calculate_bmi
FNDA:7,_RNvNtNtCs99Oc0knXXS8_12librefit_lib7service6wizard13calculate_bmr
FNDA:7,_RNvNtNtCs99Oc0knXXS8_12librefit_lib7service6wizard14calculate_tdee
FNDA:7,_RNvNtNtCs99Oc0knXXS8_12librefit_lib7service6wizard16calculate_target
FNDA:7,_RNvNtNtCs99Oc0knXXS8_12librefit_lib7service6wizard17calculate_deficit
FNDA:7,_RNvNtNtCs99Oc0knXXS8_12librefit_lib7service6wizard20calculate_target_bmi
FNDA:14,_RNvNtNtCs99Oc0knXXS8_12librefit_lib7service6wizard21wizard_calculate_tdee
FNDA:2,_RNvNtNtCs99Oc0knXXS8_12librefit_lib7service6wizard21wizard_create_targets
FNDA:31,_RNvNtNtCs99Oc0knXXS8_12librefit_lib7service6wizard22calculate_bmi_category
FNDA:21,_RNvNtNtCs99Oc0knXXS8_12librefit_lib7service6wizard23calculate_duration_days
FNDA:7,_RNvNtNtCs99Oc0knXXS8_12librefit_lib7service6wizard23calculate_target_weight
FNDA:14,_RNvNtNtCs99Oc0knXXS8_12librefit_lib7service6wizard23validate_activity_level
FNDA:7,_RNvNtNtCs99Oc0knXXS8_12librefit_lib7service6wizard24calculate_recommendation
FNDA:4,_RNvNtNtCs99Oc0knXXS8_12librefit_lib7service6wizard25calculate_for_target_date
FNDA:8,_RNvNtNtCs99Oc0knXXS8_12librefit_lib7service6wizard27calculate_for_target_weight
FNDA:7,_RNvNtNtCs99Oc0knXXS8_12librefit_lib7service6wizard29calculate_duration_days_total
FNDA:7,_RNvNtNtCs99Oc0knXXS8_12librefit_lib7service6wizard29calculate_target_weight_lower
FNDA:7,_RNvNtNtCs99Oc0knXXS8_12librefit_lib7service6wizard29calculate_target_weight_upper
FNDA:4,_RNvNtNtCs99Oc0knXXS8_12librefit_lib7service6wizard32wizard_calculate_for_target_date
FNDA:8,_RNvNtNtCs99Oc0knXXS8_12librefit_lib7service6wizard34wizard_calculate_for_target_weight
FNDA:14,_RNvNtNtCs99Oc0knXXS8_12librefit_lib7service6wizard9calculate
FNDA:0,_RNCNvNtNtCskxb0fiIX3sM_12librefit_lib7service6wizard21wizard_create_targets0B7_
FNDA:0,_RNCNvNtNtCskxb0fiIX3sM_12librefit_lib7service6wizard21wizard_create_targetss0_0B7_
FNDA:0,_RNCNvNtNtCskxb0fiIX3sM_12librefit_lib7service6wizard21wizard_create_targetss_0B7_
FNDA:0,_RNCNvNtNtCskxb0fiIX3sM_12librefit_lib7service6wizard25calculate_for_target_date0B7_
FNDA:0,_RNCNvNtNtCskxb0fiIX3sM_12librefit_lib7service6wizard25calculate_for_target_dates_0B7_
FNDA:0,_RNvMNtNtCskxb0fiIX3sM_12librefit_lib7service6wizardNtB2_12WizardResult8specific
FNDA:0,_RNvNtNtCskxb0fiIX3sM_12librefit_lib7service6wizard13calculate_bmi
FNDA:0,_RNvNtNtCskxb0fiIX3sM_12librefit_lib7service6wizard13calculate_bmr
FNDA:0,_RNvNtNtCskxb0fiIX3sM_12librefit_lib7service6wizard14calculate_tdee
FNDA:0,_RNvNtNtCskxb0fiIX3sM_12librefit_lib7service6wizard16calculate_target
FNDA:0,_RNvNtNtCskxb0fiIX3sM_12librefit_lib7service6wizard17calculate_deficit
FNDA:0,_RNvNtNtCskxb0fiIX3sM_12librefit_lib7service6wizard20calculate_target_bmi
FNDA:0,_RNvNtNtCskxb0fiIX3sM_12librefit_lib7service6wizard21wizard_calculate_tdee
FNDA:0,_RNvNtNtCskxb0fiIX3sM_12librefit_lib7service6wizard21wizard_create_targets
FNDA:0,_RNvNtNtCskxb0fiIX3sM_12librefit_lib7service6wizard22calculate_bmi_category
FNDA:0,_RNvNtNtCskxb0fiIX3sM_12librefit_lib7service6wizard23calculate_duration_days
FNDA:0,_RNvNtNtCskxb0fiIX3sM_12librefit_lib7service6wizard23calculate_target_weight
FNDA:0,_RNvNtNtCskxb0fiIX3sM_12librefit_lib7service6wizard23validate_activity_level
FNDA:0,_RNvNtNtCskxb0fiIX3sM_12librefit_lib7service6wizard24calculate_recommendation
FNDA:0,_RNvNtNtCskxb0fiIX3sM_12librefit_lib7service6wizard25calculate_for_target_date
FNDA:0,_RNvNtNtCskxb0fiIX3sM_12librefit_lib7service6wizard27calculate_for_target_weight
FNDA:0,_RNvNtNtCskxb0fiIX3sM_12librefit_lib7service6wizard29calculate_duration_days_total
FNDA:0,_RNvNtNtCskxb0fiIX3sM_12librefit_lib7service6wizard29calculate_target_weight_lower
FNDA:0,_RNvNtNtCskxb0fiIX3sM_12librefit_lib7service6wizard29calculate_target_weight_upper
FNDA:0,_RNvNtNtCskxb0fiIX3sM_12librefit_lib7service6wizard32wizard_calculate_for_target_date
FNDA:0,_RNvNtNtCskxb0fiIX3sM_12librefit_lib7service6wizard34wizard_calculate_for_target_weight
FNDA:0,_RNvNtNtCskxb0fiIX3sM_12librefit_lib7service6wizard9calculate
FNF:27
FNH:25
DA:67,14
DA:68,14
DA:69,14
DA:70,14
DA:71,14
DA:72,14
DA:73,14
DA:74,14
DA:75,14
DA:76,14
DA:77,14
DA:78,14
DA:79,14
DA:80,14
DA:81,14
DA:82,14
DA:83,14
DA:84,14
DA:85,14
DA:86,14
DA:169,14
DA:170,14
DA:171,14
DA:172,0
DA:174,14
DA:180,14
DA:181,14
DA:182,7
DA:184,7
DA:186,7
DA:187,7
DA:188,7
DA:189,7
DA:190,7
DA:193,7
DA:194,7
DA:195,7
DA:197,7
DA:198,7
DA:200,7
DA:201,7
DA:202,7
DA:204,7
DA:205,7
DA:206,7
DA:207,7
DA:208,7
DA:210,7
DA:212,7
DA:213,7
DA:214,7
DA:215,7
DA:216,7
DA:217,7
DA:218,7
DA:219,7
DA:220,7
DA:221,7
DA:222,7
DA:223,7
DA:224,7
DA:225,7
DA:226,7
DA:227,7
DA:228,7
DA:229,7
DA:231,7
DA:233,7
DA:236,14
DA:238,4
DA:239,4
DA:240,4
DA:241,4
DA:242,2
DA:244,2
DA:245,2
DA:246,2
DA:247,2
DA:249,2
DA:251,2
DA:252,2
DA:254,2
DA:255,2
DA:256,1
DA:258,1
DA:261,2
DA:263,2
DA:264,2
DA:265,14
DA:266,14
DA:267,14
DA:269,14
DA:270,14
DA:272,14
DA:273,14
DA:275,14
DA:277,7
DA:278,7
DA:280,0
DA:284,7
DA:285,0
DA:287,7
DA:289,0
DA:293,14
DA:294,2
DA:297,2
DA:298,0
DA:299,0
DA:301,0
DA:302,0
DA:303,0
DA:304,0
DA:309,0
DA:311,0
DA:312,0
DA:314,0
DA:315,0
DA:316,0
DA:317,0
DA:320,0
DA:321,2
DA:323,2
DA:324,2
DA:326,14
DA:327,14
DA:328,14
DA:329,14
DA:331,2
DA:332,2
DA:333,2
DA:334,2
DA:337,4
DA:339,8
DA:340,8
DA:341,8
DA:342,8
DA:343,4
DA:345,4
DA:346,4
DA:348,4
DA:349,4
DA:351,4
DA:352,1
DA:354,3
DA:357,4
DA:358,4
DA:362,4
DA:364,4
DA:365,1
DA:366,1
DA:367,0
DA:368,1
DA:369,1
DA:370,1
DA:371,0
DA:372,3
DA:373,0
DA:374,0
DA:375,0
DA:376,0
DA:377,0
DA:378,0
DA:379,0
DA:380,3
DA:381,0
DA:382,0
DA:383,0
DA:384,0
DA:385,0
DA:386,0
DA:387,0
DA:388,3
DA:390,4
DA:391,4
DA:393,4
DA:394,3
DA:396,24
DA:397,21
DA:398,21
DA:399,21
DA:400,21
DA:401,21
DA:402,21
DA:403,21
DA:404,21
DA:405,21
DA:406,1
DA:408,4
DA:409,4
DA:410,4
DA:411,4
DA:412,4
DA:413,4
DA:414,4
DA:417,8
DA:419,7
DA:420,7
DA:421,6
DA:423,1
DA:426,7
DA:428,7
DA:429,7
DA:430,7
DA:432,7
DA:433,7
DA:434,7
DA:436,7
DA:437,7
DA:438,1
DA:439,6
DA:441,7
DA:443,31
DA:444,31
DA:445,31
DA:447,31
DA:448,31
DA:450,31
DA:451,31
DA:452,27
DA:453,8
DA:454,0
DA:455,0
DA:457,31
DA:462,7
DA:463,7
DA:464,7
DA:466,7
DA:467,7
DA:468,7
DA:470,7
DA:471,7
DA:472,7
DA:474,7
DA:475,7
DA:476,7
DA:478,7
DA:479,7
DA:480,1
DA:481,1
DA:482,1
DA:483,1
DA:484,1
DA:485,1
DA:486,1
DA:487,1
DA:488,1
DA:489,1
DA:490,1
DA:491,1
DA:492,1
DA:493,1
DA:494,1
DA:495,1
DA:496,1
DA:497,6
DA:498,6
DA:499,6
DA:500,6
DA:501,6
DA:502,6
DA:503,6
DA:504,6
DA:505,6
DA:506,6
DA:507,6
DA:508,6
DA:509,6
DA:510,6
DA:511,6
DA:512,6
DA:513,6
DA:515,7
DA:517,21
DA:518,21
DA:519,21
DA:524,7
DA:525,7
DA:527,7
DA:528,1
DA:529,6
DA:532,0
DA:533,6
DA:535,5
DA:538,1
DA:540,7
DA:547,14
DA:548,14
DA:550,14
DA:552,14
DA:554,14
DA:555,14
DA:558,2
DA:559,2
DA:561,2
DA:562,2
DA:563,2
DA:565,2
DA:566,2
DA:567,2
DA:568,2
DA:570,2
DA:571,2
DA:572,2
DA:573,2
DA:576,4
DA:577,4
DA:578,4
DA:579,4
DA:581,4
DA:583,4
DA:585,4
DA:586,4
DA:589,8
DA:590,8
DA:591,8
DA:592,8
DA:594,8
DA:596,8
DA:598,8
DA:599,8
BRF:0
BRH:0
LF:325
LH:286
end_of_record
SF:/Users/steff-man/Projects/librefit/src-tauri/src/util/error_handler.rs
FN:5,_RNvNtNtCs99Oc0knXXS8_12librefit_lib4util13error_handler12handle_error
FN:5,_RNvNtNtCskxb0fiIX3sM_12librefit_lib4util13error_handler12handle_error
FNDA:2,_RNvNtNtCs99Oc0knXXS8_12librefit_lib4util13error_handler12handle_error
FNDA:0,_RNvNtNtCskxb0fiIX3sM_12librefit_lib4util13error_handler12handle_error
FNF:1
FNH:1
DA:5,2
DA:6,2
DA:8,2
DA:9,2
DA:10,0
DA:11,0
DA:12,0
DA:13,0
DA:15,0
DA:16,0
DA:17,0
DA:19,0
DA:21,2
BRF:0
BRH:0
LF:13
LH:5
end_of_record
SF:/Users/steff-man/Projects/librefit/src-tauri/src/util/serde/date.rs
FN:12,_RINvNtNtNtCs99Oc0knXXS8_12librefit_lib4util5serde4date11deserializepEB8_
FN:8,_RINvNtNtNtCs99Oc0knXXS8_12librefit_lib4util5serde4date9serializepEB8_
FN:4,_RNvNtNtNtCs99Oc0knXXS8_12librefit_lib4util5serde4date12date_to_json
FN:12,_RINvNtNtNtCskxb0fiIX3sM_12librefit_lib4util5serde4date11deserializepEB8_
FN:8,_RINvNtNtNtCskxb0fiIX3sM_12librefit_lib4util5serde4date9serializepEB8_
FN:4,_RNvNtNtNtCskxb0fiIX3sM_12librefit_lib4util5serde4date12date_to_json
FNDA:0,_RINvNtNtNtCs99Oc0knXXS8_12librefit_lib4util5serde4date11deserializepEB8_
FNDA:0,_RINvNtNtNtCs99Oc0knXXS8_12librefit_lib4util5serde4date9serializepEB8_
FNDA:0,_RNvNtNtNtCs99Oc0knXXS8_12librefit_lib4util5serde4date12date_to_json
FNDA:0,_RINvNtNtNtCskxb0fiIX3sM_12librefit_lib4util5serde4date11deserializepEB8_
FNDA:0,_RINvNtNtNtCskxb0fiIX3sM_12librefit_lib4util5serde4date9serializepEB8_
FNDA:0,_RNvNtNtNtCskxb0fiIX3sM_12librefit_lib4util5serde4date12date_to_json
FNF:3
FNH:0
DA:4,0
DA:5,0
DA:6,0
DA:8,0
DA:9,0
DA:10,0
DA:12,0
DA:13,0
DA:14,0
DA:15,0
BRF:0
BRH:0
LF:10
LH:0
end_of_record